
clock_avr.elf:     file format elf32-avr

Sections:
Idx Name          Size      VMA       LMA       File off  Algn
  0 .text         00001290  00000000  00000000  00000094  2**1
                  CONTENTS, ALLOC, LOAD, READONLY, CODE
  1 .data         00000054  00800060  00001290  00001324  2**0
                  CONTENTS, ALLOC, LOAD, DATA
  2 .bss          00000036  008000b4  008000b4  00001378  2**0
                  ALLOC
  3 .comment      00000030  00000000  00000000  00001378  2**0
                  CONTENTS, READONLY
  4 .note.gnu.avr.deviceinfo 0000003c  00000000  00000000  000013a8  2**2
                  CONTENTS, READONLY
  5 .debug_aranges 00000148  00000000  00000000  000013e4  2**0
                  CONTENTS, READONLY, DEBUGGING
  6 .debug_info   0000179b  00000000  00000000  0000152c  2**0
                  CONTENTS, READONLY, DEBUGGING
  7 .debug_abbrev 00000ad5  00000000  00000000  00002cc7  2**0
                  CONTENTS, READONLY, DEBUGGING
  8 .debug_line   00000dad  00000000  00000000  0000379c  2**0
                  CONTENTS, READONLY, DEBUGGING
  9 .debug_frame  00000408  00000000  00000000  0000454c  2**2
                  CONTENTS, READONLY, DEBUGGING
 10 .debug_str    00000736  00000000  00000000  00004954  2**0
                  CONTENTS, READONLY, DEBUGGING
 11 .debug_loc    0000130c  00000000  00000000  0000508a  2**0
                  CONTENTS, READONLY, DEBUGGING
 12 .debug_ranges 00000148  00000000  00000000  00006396  2**0
                  CONTENTS, READONLY, DEBUGGING

Disassembly of section .text:

00000000 <__vectors>:
       0:	83 c0       	rjmp	.+262    	; 0x108 <__ctors_end>
       2:	9d c0       	rjmp	.+314    	; 0x13e <__bad_interrupt>
       4:	9c c0       	rjmp	.+312    	; 0x13e <__bad_interrupt>
       6:	bf c2       	rjmp	.+1406   	; 0x586 <__vector_3>
       8:	9a c0       	rjmp	.+308    	; 0x13e <__bad_interrupt>
       a:	99 c0       	rjmp	.+306    	; 0x13e <__bad_interrupt>
       c:	59 c2       	rjmp	.+1202   	; 0x4c0 <__vector_6>
       e:	97 c0       	rjmp	.+302    	; 0x13e <__bad_interrupt>
      10:	96 c0       	rjmp	.+300    	; 0x13e <__bad_interrupt>
      12:	95 c0       	rjmp	.+298    	; 0x13e <__bad_interrupt>
      14:	94 c0       	rjmp	.+296    	; 0x13e <__bad_interrupt>
      16:	93 c0       	rjmp	.+294    	; 0x13e <__bad_interrupt>
      18:	92 c0       	rjmp	.+292    	; 0x13e <__bad_interrupt>
      1a:	91 c0       	rjmp	.+290    	; 0x13e <__bad_interrupt>
      1c:	90 c0       	rjmp	.+288    	; 0x13e <__bad_interrupt>
      1e:	8f c0       	rjmp	.+286    	; 0x13e <__bad_interrupt>
      20:	8e c0       	rjmp	.+284    	; 0x13e <__bad_interrupt>
      22:	21 c1       	rjmp	.+578    	; 0x266 <__vector_17>
      24:	8c c0       	rjmp	.+280    	; 0x13e <__bad_interrupt>
      26:	ae c1       	rjmp	.+860    	; 0x384 <__vector_17+0x11e>
      28:	b1 c1       	rjmp	.+866    	; 0x38c <__vector_17+0x126>
      2a:	b0 c1       	rjmp	.+864    	; 0x38c <__vector_17+0x126>
      2c:	af c1       	rjmp	.+862    	; 0x38c <__vector_17+0x126>
      2e:	ae c1       	rjmp	.+860    	; 0x38c <__vector_17+0x126>
      30:	ad c1       	rjmp	.+858    	; 0x38c <__vector_17+0x126>
      32:	ac c1       	rjmp	.+856    	; 0x38c <__vector_17+0x126>
      34:	ab c1       	rjmp	.+854    	; 0x38c <__vector_17+0x126>
      36:	31 c1       	rjmp	.+610    	; 0x29a <__vector_17+0x34>
      38:	a9 c1       	rjmp	.+850    	; 0x38c <__vector_17+0x126>
      3a:	a8 c1       	rjmp	.+848    	; 0x38c <__vector_17+0x126>
      3c:	a7 c1       	rjmp	.+846    	; 0x38c <__vector_17+0x126>
      3e:	a6 c1       	rjmp	.+844    	; 0x38c <__vector_17+0x126>
      40:	a5 c1       	rjmp	.+842    	; 0x38c <__vector_17+0x126>
      42:	a4 c1       	rjmp	.+840    	; 0x38c <__vector_17+0x126>
      44:	a3 c1       	rjmp	.+838    	; 0x38c <__vector_17+0x126>
      46:	29 c1       	rjmp	.+594    	; 0x29a <__vector_17+0x34>
      48:	a1 c1       	rjmp	.+834    	; 0x38c <__vector_17+0x126>
      4a:	a0 c1       	rjmp	.+832    	; 0x38c <__vector_17+0x126>
      4c:	9f c1       	rjmp	.+830    	; 0x38c <__vector_17+0x126>
      4e:	9e c1       	rjmp	.+828    	; 0x38c <__vector_17+0x126>
      50:	9d c1       	rjmp	.+826    	; 0x38c <__vector_17+0x126>
      52:	9c c1       	rjmp	.+824    	; 0x38c <__vector_17+0x126>
      54:	9b c1       	rjmp	.+822    	; 0x38c <__vector_17+0x126>
      56:	27 c1       	rjmp	.+590    	; 0x2a6 <__vector_17+0x40>
      58:	99 c1       	rjmp	.+818    	; 0x38c <__vector_17+0x126>
      5a:	98 c1       	rjmp	.+816    	; 0x38c <__vector_17+0x126>
      5c:	97 c1       	rjmp	.+814    	; 0x38c <__vector_17+0x126>
      5e:	96 c1       	rjmp	.+812    	; 0x38c <__vector_17+0x126>
      60:	95 c1       	rjmp	.+810    	; 0x38c <__vector_17+0x126>
      62:	94 c1       	rjmp	.+808    	; 0x38c <__vector_17+0x126>
      64:	93 c1       	rjmp	.+806    	; 0x38c <__vector_17+0x126>
      66:	82 c1       	rjmp	.+772    	; 0x36c <__vector_17+0x106>
      68:	91 c1       	rjmp	.+802    	; 0x38c <__vector_17+0x126>
      6a:	90 c1       	rjmp	.+800    	; 0x38c <__vector_17+0x126>
      6c:	8f c1       	rjmp	.+798    	; 0x38c <__vector_17+0x126>
      6e:	8e c1       	rjmp	.+796    	; 0x38c <__vector_17+0x126>
      70:	8d c1       	rjmp	.+794    	; 0x38c <__vector_17+0x126>
      72:	8c c1       	rjmp	.+792    	; 0x38c <__vector_17+0x126>
      74:	8b c1       	rjmp	.+790    	; 0x38c <__vector_17+0x126>
      76:	19 c1       	rjmp	.+562    	; 0x2aa <__vector_17+0x44>
      78:	89 c1       	rjmp	.+786    	; 0x38c <__vector_17+0x126>
      7a:	88 c1       	rjmp	.+784    	; 0x38c <__vector_17+0x126>
      7c:	87 c1       	rjmp	.+782    	; 0x38c <__vector_17+0x126>
      7e:	86 c1       	rjmp	.+780    	; 0x38c <__vector_17+0x126>
      80:	85 c1       	rjmp	.+778    	; 0x38c <__vector_17+0x126>
      82:	84 c1       	rjmp	.+776    	; 0x38c <__vector_17+0x126>
      84:	83 c1       	rjmp	.+774    	; 0x38c <__vector_17+0x126>
      86:	72 c1       	rjmp	.+740    	; 0x36c <__vector_17+0x106>
      88:	81 c1       	rjmp	.+770    	; 0x38c <__vector_17+0x126>
      8a:	80 c1       	rjmp	.+768    	; 0x38c <__vector_17+0x126>
      8c:	7f c1       	rjmp	.+766    	; 0x38c <__vector_17+0x126>
      8e:	7e c1       	rjmp	.+764    	; 0x38c <__vector_17+0x126>
      90:	7d c1       	rjmp	.+762    	; 0x38c <__vector_17+0x126>
      92:	7c c1       	rjmp	.+760    	; 0x38c <__vector_17+0x126>
      94:	7b c1       	rjmp	.+758    	; 0x38c <__vector_17+0x126>
      96:	6f c1       	rjmp	.+734    	; 0x376 <__vector_17+0x110>
      98:	79 c1       	rjmp	.+754    	; 0x38c <__vector_17+0x126>
      9a:	78 c1       	rjmp	.+752    	; 0x38c <__vector_17+0x126>
      9c:	77 c1       	rjmp	.+750    	; 0x38c <__vector_17+0x126>
      9e:	76 c1       	rjmp	.+748    	; 0x38c <__vector_17+0x126>
      a0:	75 c1       	rjmp	.+746    	; 0x38c <__vector_17+0x126>
      a2:	74 c1       	rjmp	.+744    	; 0x38c <__vector_17+0x126>
      a4:	73 c1       	rjmp	.+742    	; 0x38c <__vector_17+0x126>
      a6:	26 c1       	rjmp	.+588    	; 0x2f4 <__vector_17+0x8e>
      a8:	71 c1       	rjmp	.+738    	; 0x38c <__vector_17+0x126>
      aa:	70 c1       	rjmp	.+736    	; 0x38c <__vector_17+0x126>
      ac:	6f c1       	rjmp	.+734    	; 0x38c <__vector_17+0x126>
      ae:	6e c1       	rjmp	.+732    	; 0x38c <__vector_17+0x126>
      b0:	6d c1       	rjmp	.+730    	; 0x38c <__vector_17+0x126>
      b2:	6c c1       	rjmp	.+728    	; 0x38c <__vector_17+0x126>
      b4:	6b c1       	rjmp	.+726    	; 0x38c <__vector_17+0x126>
      b6:	5a c1       	rjmp	.+692    	; 0x36c <__vector_17+0x106>
      b8:	69 c1       	rjmp	.+722    	; 0x38c <__vector_17+0x126>
      ba:	68 c1       	rjmp	.+720    	; 0x38c <__vector_17+0x126>
      bc:	67 c1       	rjmp	.+718    	; 0x38c <__vector_17+0x126>
      be:	66 c1       	rjmp	.+716    	; 0x38c <__vector_17+0x126>
      c0:	65 c1       	rjmp	.+714    	; 0x38c <__vector_17+0x126>
      c2:	64 c1       	rjmp	.+712    	; 0x38c <__vector_17+0x126>
      c4:	63 c1       	rjmp	.+710    	; 0x38c <__vector_17+0x126>
      c6:	2a c1       	rjmp	.+596    	; 0x31c <__vector_17+0xb6>
      c8:	61 c1       	rjmp	.+706    	; 0x38c <__vector_17+0x126>
      ca:	60 c1       	rjmp	.+704    	; 0x38c <__vector_17+0x126>
      cc:	5f c1       	rjmp	.+702    	; 0x38c <__vector_17+0x126>
      ce:	5e c1       	rjmp	.+700    	; 0x38c <__vector_17+0x126>
      d0:	5d c1       	rjmp	.+698    	; 0x38c <__vector_17+0x126>
      d2:	5c c1       	rjmp	.+696    	; 0x38c <__vector_17+0x126>
      d4:	5b c1       	rjmp	.+694    	; 0x38c <__vector_17+0x126>
      d6:	3d c1       	rjmp	.+634    	; 0x352 <__vector_17+0xec>
      d8:	b7 c1       	rjmp	.+878    	; 0x448 <catod+0x10>
      da:	b9 c1       	rjmp	.+882    	; 0x44e <catod+0x16>
      dc:	bb c1       	rjmp	.+886    	; 0x454 <catod+0x1c>
      de:	bd c1       	rjmp	.+890    	; 0x45a <catod+0x22>
      e0:	bf c1       	rjmp	.+894    	; 0x460 <__stack+0x1>
      e2:	c1 c1       	rjmp	.+898    	; 0x466 <__stack+0x7>
      e4:	c3 c1       	rjmp	.+902    	; 0x46c <__stack+0xd>
      e6:	c5 c1       	rjmp	.+906    	; 0x472 <__stack+0x13>
      e8:	c7 c1       	rjmp	.+910    	; 0x478 <__stack+0x19>
      ea:	c9 c1       	rjmp	.+914    	; 0x47e <__stack+0x1f>

000000ec <RDA5807M_ChannelSpacings>:
      ec:	64 00 c8 00 32 00 19 00                             d...2...

000000f4 <RDA5807M_BandHigherLimits>:
      f4:	30 2a 8c 23 30 2a b0 1d 64 19                       0*.#0*..d.

000000fe <RDA5807M_BandLowerLimits>:
      fe:	fc 21 b0 1d b0 1d 64 19 88 13                       .!....d...

00000108 <__ctors_end>:
     108:	11 24       	eor	r1, r1
     10a:	1f be       	out	0x3f, r1	; 63
     10c:	cf e5       	ldi	r28, 0x5F	; 95
     10e:	d4 e0       	ldi	r29, 0x04	; 4
     110:	de bf       	out	0x3e, r29	; 62
     112:	cd bf       	out	0x3d, r28	; 61

00000114 <__do_copy_data>:
     114:	10 e0       	ldi	r17, 0x00	; 0
     116:	a0 e6       	ldi	r26, 0x60	; 96
     118:	b0 e0       	ldi	r27, 0x00	; 0
     11a:	e0 e9       	ldi	r30, 0x90	; 144
     11c:	f2 e1       	ldi	r31, 0x12	; 18
     11e:	02 c0       	rjmp	.+4      	; 0x124 <__do_copy_data+0x10>
     120:	05 90       	lpm	r0, Z+
     122:	0d 92       	st	X+, r0
     124:	a4 3b       	cpi	r26, 0xB4	; 180
     126:	b1 07       	cpc	r27, r17
     128:	d9 f7       	brne	.-10     	; 0x120 <__do_copy_data+0xc>

0000012a <__do_clear_bss>:
     12a:	20 e0       	ldi	r18, 0x00	; 0
     12c:	a4 eb       	ldi	r26, 0xB4	; 180
     12e:	b0 e0       	ldi	r27, 0x00	; 0
     130:	01 c0       	rjmp	.+2      	; 0x134 <.do_clear_bss_start>

00000132 <.do_clear_bss_loop>:
     132:	1d 92       	st	X+, r1

00000134 <.do_clear_bss_start>:
     134:	aa 3e       	cpi	r26, 0xEA	; 234
     136:	b2 07       	cpc	r27, r18
     138:	e1 f7       	brne	.-8      	; 0x132 <.do_clear_bss_loop>
     13a:	ec d2       	rcall	.+1496   	; 0x714 <main>
     13c:	a7 c8       	rjmp	.-3762   	; 0xfffff28c <__eeprom_end+0xff7ef28c>

0000013e <__bad_interrupt>:
     13e:	60 cf       	rjmp	.-320    	; 0x0 <__vectors>

00000140 <i2cSetBitrate>:
void i2cSetBitrate (uint16_t bitrateKHz)							//	*
{																	//	*
uint8_t TWPS_i2c=0,k=1;												//	*
uint16hl_t bitrate;													//	*
// проверяем максимальную допустимую скорость							*
if (bitrateKHz>=bitrate_max) 										//	*
     140:	8b 31       	cpi	r24, 0x1B	; 27
     142:	91 05       	cpc	r25, r1
     144:	30 f0       	brcs	.+12     	; 0x152 <i2cSetBitrate+0x12>
{																	//	*
// Вставляем максимально-допустимую скорость работы шины				*
TWSR&=~0b11;	// Обнуляем предделитель тактирования шины ТВИ			*
     146:	81 b1       	in	r24, 0x01	; 1
     148:	8c 7f       	andi	r24, 0xFC	; 252
     14a:	81 b9       	out	0x01, r24	; 1
TWBR=10;		// Выставляем максимальную скорость работы шины			*
     14c:	8a e0       	ldi	r24, 0x0A	; 10
     14e:	80 b9       	out	0x00, r24	; 0
     150:	08 95       	ret
goto step1;															//	*
do {																//	*
TWPS_i2c++;															//	*
k=k*4;																//	*
step1:																//	*
bitrate.HL=bitrate.HL/(2*k);										//	*
     152:	9c 01       	movw	r18, r24
     154:	40 e0       	ldi	r20, 0x00	; 0
     156:	50 e0       	ldi	r21, 0x00	; 0
     158:	68 ee       	ldi	r22, 0xE8	; 232
     15a:	73 e0       	ldi	r23, 0x03	; 3
     15c:	80 e0       	ldi	r24, 0x00	; 0
     15e:	90 e0       	ldi	r25, 0x00	; 0
     160:	4b d8       	rcall	.-3946   	; 0xfffff1f8 <__eeprom_end+0xff7ef1f8>
     162:	20 51       	subi	r18, 0x10	; 16
     164:	31 09       	sbc	r19, r1
     166:	c9 01       	movw	r24, r18
     168:	96 95       	lsr	r25
     16a:	87 95       	ror	r24
     16c:	28 2f       	mov	r18, r24
} while (bitrate.HL>=0x0100);										//	*
     16e:	8f 3f       	cpi	r24, 0xFF	; 255
     170:	91 05       	cpc	r25, r1
     172:	99 f0       	breq	.+38     	; 0x19a <i2cSetBitrate+0x5a>
     174:	90 f0       	brcs	.+36     	; 0x19a <i2cSetBitrate+0x5a>
     176:	21 e0       	ldi	r18, 0x01	; 1
     178:	30 e0       	ldi	r19, 0x00	; 0
return;																//	*
}																	//	*
bitrate.HL=(F_CPU/1000/bitrateKHz-16);								//	*
goto step1;															//	*
do {																//	*
TWPS_i2c++;															//	*
     17a:	3f 5f       	subi	r19, 0xFF	; 255
k=k*4;																//	*
     17c:	22 0f       	add	r18, r18
     17e:	22 0f       	add	r18, r18
step1:																//	*
bitrate.HL=bitrate.HL/(2*k);										//	*
     180:	42 2f       	mov	r20, r18
     182:	50 e0       	ldi	r21, 0x00	; 0
     184:	ba 01       	movw	r22, r20
     186:	66 0f       	add	r22, r22
     188:	77 1f       	adc	r23, r23
     18a:	22 d8       	rcall	.-4028   	; 0xfffff1d0 <__eeprom_end+0xff7ef1d0>
     18c:	cb 01       	movw	r24, r22
} while (bitrate.HL>=0x0100);										//	*
     18e:	6f 3f       	cpi	r22, 0xFF	; 255
     190:	71 05       	cpc	r23, r1
     192:	09 f0       	breq	.+2      	; 0x196 <i2cSetBitrate+0x56>
     194:	90 f7       	brcc	.-28     	; 0x17a <i2cSetBitrate+0x3a>
     196:	26 2f       	mov	r18, r22
     198:	01 c0       	rjmp	.+2      	; 0x19c <i2cSetBitrate+0x5c>
}																	//	*
//----------------------------------------------------------------------*
//	Настройка частоты шины TWI											*
void i2cSetBitrate (uint16_t bitrateKHz)							//	*
{																	//	*
uint8_t TWPS_i2c=0,k=1;												//	*
     19a:	30 e0       	ldi	r19, 0x00	; 0
TWPS_i2c++;															//	*
k=k*4;																//	*
step1:																//	*
bitrate.HL=bitrate.HL/(2*k);										//	*
} while (bitrate.HL>=0x0100);										//	*
TWSR=TWPS_i2c;														//	*
     19c:	31 b9       	out	0x01, r19	; 1
TWBR=bitrate.L;														//	*
     19e:	20 b9       	out	0x00, r18	; 0
     1a0:	08 95       	ret

000001a2 <i2cInit>:
{																	//	*
#ifdef set_pull_up_i2c												//	*
//PORT_i2c|=(1<<SCL);													//	*
//PORT_i2c|=(1<<SDA);													//	*
#endif																//	*
i2cSetBitrate(bitrate_def);											//	*
     1a2:	81 e0       	ldi	r24, 0x01	; 1
     1a4:	90 e0       	ldi	r25, 0x00	; 0
     1a6:	cc df       	rcall	.-104    	; 0x140 <i2cSetBitrate>
I2Cstate=I2C_IDLE;													//	*
     1a8:	10 92 cc 00 	sts	0x00CC, r1	; 0x8000cc <I2Cstate>
TWCR=0;																//	*
     1ac:	16 be       	out	0x36, r1	; 54
#ifdef Slave_MODE													//	*
i2cSetDeviceAddr(i2cMyAddres, 0);									//	*
#endif																//	*
TWCR|=(1<<TWEN)|(1<<TWIE)|(1<TWINT);								//	*
     1ae:	86 b7       	in	r24, 0x36	; 54
     1b0:	85 60       	ori	r24, 0x05	; 5
     1b2:	86 bf       	out	0x36, r24	; 54
sei();																//	*
     1b4:	78 94       	sei
     1b6:	08 95       	ret

000001b8 <i2cMasterBufReset>:
#ifdef Master_MODE
//______________________________________________________________________*
//	Сброс указателя Master-буфера										*
void i2cMasterBufReset(void)										//	*
{																	//	*
i2cMasterSendPlan=0;	// обнуляем счетчик байт для отправки 			*
     1b8:	10 92 b5 00 	sts	0x00B5, r1	; 0x8000b5 <i2cMasterSendPlan>
i2cMasterReceivePlan=0; // обнуляем счетчик байт для приема				*
     1bc:	10 92 b4 00 	sts	0x00B4, r1	; 0x8000b4 <__data_end>
     1c0:	08 95       	ret

000001c2 <i2cMasterUploadBuf>:
//----------------------------------------------------------------------*
//	Загрузка ДАННЫХ в Master-буфер для ОТПРАВКИ							*
//	Результат функции успешность загрузки данных в буфер				*
uint8_t i2cMasterUploadBuf(uint8_t data)							//	*
{																	//	*
if (i2cMasterSendPlan<Size_Master_Buf)								//	*
     1c2:	90 91 b5 00 	lds	r25, 0x00B5	; 0x8000b5 <i2cMasterSendPlan>
     1c6:	94 31       	cpi	r25, 0x14	; 20
     1c8:	68 f4       	brcc	.+26     	; 0x1e4 <i2cMasterUploadBuf+0x22>
	{																//	*
	i2cMasterBuf[i2cMasterSendPlan]=data;							//	*
     1ca:	e0 91 b5 00 	lds	r30, 0x00B5	; 0x8000b5 <i2cMasterSendPlan>
     1ce:	f0 e0       	ldi	r31, 0x00	; 0
     1d0:	e9 54       	subi	r30, 0x49	; 73
     1d2:	ff 4f       	sbci	r31, 0xFF	; 255
     1d4:	80 83       	st	Z, r24
	i2cMasterSendPlan++;											//	*
     1d6:	80 91 b5 00 	lds	r24, 0x00B5	; 0x8000b5 <i2cMasterSendPlan>
     1da:	8f 5f       	subi	r24, 0xFF	; 255
     1dc:	80 93 b5 00 	sts	0x00B5, r24	; 0x8000b5 <i2cMasterSendPlan>
	return 1;														//	*
     1e0:	81 e0       	ldi	r24, 0x01	; 1
     1e2:	08 95       	ret
	}																//	*
	else															//	*
	{																//	*
	// i2cMasterSendPlan == Size_Master_Buf								* 
	return 0;														//	*
     1e4:	80 e0       	ldi	r24, 0x00	; 0
	}																//	*
}																	//	*
     1e6:	08 95       	ret

000001e8 <i2cMasterSendBuf>:
//----------------------------------------------------------------------*
//	Отправка данных из Master-буфера									*
//	Результат функции кол-во отправленных байт							*
uint8_t i2cMasterSendBuf(uint8_t deviceAdd)							//	*
{																	//	*
while(I2Cstate); 		// Ожидаем освобождения шины 					*
     1e8:	90 91 cc 00 	lds	r25, 0x00CC	; 0x8000cc <I2Cstate>
     1ec:	91 11       	cpse	r25, r1
     1ee:	fc cf       	rjmp	.-8      	; 0x1e8 <i2cMasterSendBuf>
I2Cstate=I2C_MASTER_TX; // Устанавливаем флаг  предачи мастером 		*
     1f0:	92 e0       	ldi	r25, 0x02	; 2
     1f2:	90 93 cc 00 	sts	0x00CC, r25	; 0x8000cc <I2Cstate>
i2cDeviceAddrRW=(deviceAdd<<1);	// Загружаем Slave АДРЕС+W				*
     1f6:	88 0f       	add	r24, r24
     1f8:	80 93 b6 00 	sts	0x00B6, r24	; 0x8000b6 <i2cDeviceAddrRW>
i2cSendStartI();		// Посылаем команду старта передачи				*
     1fc:	85 ea       	ldi	r24, 0xA5	; 165
     1fe:	86 bf       	out	0x36, r24	; 54
while(I2Cstate); 		// Ожидаем освобождения шины 					*
     200:	80 91 cc 00 	lds	r24, 0x00CC	; 0x8000cc <I2Cstate>
     204:	81 11       	cpse	r24, r1
     206:	fc cf       	rjmp	.-8      	; 0x200 <i2cMasterSendBuf+0x18>
i2cMasterSendPlan=0;	// Все байты отправлены							*
     208:	10 92 b5 00 	sts	0x00B5, r1	; 0x8000b5 <i2cMasterSendPlan>
return i2cCurrentIndex; // Кол-во успешно отправленных байт				*
     20c:	80 91 cb 00 	lds	r24, 0x00CB	; 0x8000cb <i2cCurrentIndex>
}																	//	*
     210:	08 95       	ret

00000212 <i2cMasterReceive>:
//	Чтение данных из Slave												*
//	Перед чтение происходит запись данных из Мастер-Буфера				*
//	Результат функции кол-во принятых байт								*
uint8_t i2cMasterReceive(uint8_t deviceAdd, uint8_t lenght)			//	*
{																	//	*
while(I2Cstate); 		// Ожидаем освобождения шины					*
     212:	90 91 cc 00 	lds	r25, 0x00CC	; 0x8000cc <I2Cstate>
     216:	91 11       	cpse	r25, r1
     218:	fc cf       	rjmp	.-8      	; 0x212 <i2cMasterReceive>
i2cMasterReceivePlan=lenght; // Планируется принять						*
     21a:	60 93 b4 00 	sts	0x00B4, r22	; 0x8000b4 <__data_end>
// ПРоверяем требуется ли что-то передать из буфера Мастера				*
if (i2cMasterSendPlan) 												//	*
     21e:	90 91 b5 00 	lds	r25, 0x00B5	; 0x8000b5 <i2cMasterSendPlan>
     222:	99 23       	and	r25, r25
     224:	11 f0       	breq	.+4      	; 0x22a <i2cMasterReceive+0x18>
	{																//	*
	// В буфере что-то есть. Скорее всего это адрес						*
	i2cMasterSendBuf(deviceAdd);									//	*
     226:	e0 df       	rcall	.-64     	; 0x1e8 <i2cMasterSendBuf>
     228:	0e c0       	rjmp	.+28     	; 0x246 <i2cMasterReceive+0x34>
	}																//	*
	else															//	*
	{																//	*
	I2Cstate=I2C_MASTER_RX; // Устанавливаем флаг приема мастером		*
     22a:	93 e0       	ldi	r25, 0x03	; 3
     22c:	90 93 cc 00 	sts	0x00CC, r25	; 0x8000cc <I2Cstate>
	i2cDeviceAddrRW=(deviceAdd<<1)|(1);								//	*
     230:	88 0f       	add	r24, r24
     232:	81 60       	ori	r24, 0x01	; 1
     234:	80 93 b6 00 	sts	0x00B6, r24	; 0x8000b6 <i2cDeviceAddrRW>
	i2cSendStartI();												//	*
     238:	85 ea       	ldi	r24, 0xA5	; 165
     23a:	86 bf       	out	0x36, r24	; 54
	while(I2Cstate); 		// Ожидаем освобождения шины			//	*
     23c:	80 91 cc 00 	lds	r24, 0x00CC	; 0x8000cc <I2Cstate>
     240:	81 11       	cpse	r24, r1
     242:	fc cf       	rjmp	.-8      	; 0x23c <i2cMasterReceive+0x2a>
	i2cMasterBufReset();// Сброс Буфера мастера							*
     244:	b9 df       	rcall	.-142    	; 0x1b8 <i2cMasterBufReset>
	}																//	*
return i2cCurrentIndex;												//	*
     246:	80 91 cb 00 	lds	r24, 0x00CB	; 0x8000cb <i2cCurrentIndex>
}																	//	*
     24a:	08 95       	ret

0000024c <i2cMasterDownloadBufIndex>:
//----------------------------------------------------------------------*
//	ИНДЕКНОЕ чтение ДАННЫХ из Master-буфер после ПРИЕМА					*
//	Результат функции успешность чтения данных из буфера				*
uint8_t i2cMasterDownloadBufIndex(uint8_t* result, uint8_t index)	//	*
{																	//	*
if (index<Size_Master_Buf) 											//	*
     24c:	64 31       	cpi	r22, 0x14	; 20
     24e:	48 f4       	brcc	.+18     	; 0x262 <i2cMasterDownloadBufIndex+0x16>
	{																//	*
	*result=i2cMasterBuf[index];									//	*
     250:	e6 2f       	mov	r30, r22
     252:	f0 e0       	ldi	r31, 0x00	; 0
     254:	e9 54       	subi	r30, 0x49	; 73
     256:	ff 4f       	sbci	r31, 0xFF	; 255
     258:	20 81       	ld	r18, Z
     25a:	fc 01       	movw	r30, r24
     25c:	20 83       	st	Z, r18
	return 1;														//	*
     25e:	81 e0       	ldi	r24, 0x01	; 1
     260:	08 95       	ret
	}																//	*
else																//	*
	{																//	*
	return 0;														//	*
     262:	80 e0       	ldi	r24, 0x00	; 0
	}																//	*
}																	//	*
     264:	08 95       	ret

00000266 <__vector_17>:
//																		*
//		Обработчик прерываний шины TWI									*
//																		*
//***********************************************************************
ISR(TWI_vect)														//	*
{																	//	*
     266:	1f 92       	push	r1
     268:	0f 92       	push	r0
     26a:	0f b6       	in	r0, 0x3f	; 63
     26c:	0f 92       	push	r0
     26e:	11 24       	eor	r1, r1
     270:	2f 93       	push	r18
     272:	3f 93       	push	r19
     274:	8f 93       	push	r24
     276:	9f 93       	push	r25
     278:	af 93       	push	r26
     27a:	bf 93       	push	r27
     27c:	ef 93       	push	r30
     27e:	ff 93       	push	r31
uint8_t status=(TWSR&TWSR_STATUS_MASK);	// считываем КОД прерывания		*
     280:	81 b1       	in	r24, 0x01	; 1
switch(status)				// Обрабатываем КОД прерывания				*
     282:	e8 2f       	mov	r30, r24
     284:	e8 7f       	andi	r30, 0xF8	; 248
     286:	8e 2f       	mov	r24, r30
     288:	90 e0       	ldi	r25, 0x00	; 0
     28a:	89 35       	cpi	r24, 0x59	; 89
     28c:	91 05       	cpc	r25, r1
     28e:	08 f0       	brcs	.+2      	; 0x292 <__vector_17+0x2c>
     290:	7d c0       	rjmp	.+250    	; 0x38c <__vector_17+0x126>
     292:	fc 01       	movw	r30, r24
     294:	ed 5e       	subi	r30, 0xED	; 237
     296:	ff 4f       	sbci	r31, 0xFF	; 255
     298:	09 94       	ijmp
//																		*
#ifdef Master_MODE
//----------------------------------------------------------------------*
case TWI_START:	 	 // 0х08 состояние START отправленно				* 	
case TWI_Master_ReSTART:// 0х10 состояние повторный START отправленно	*
	i2cSendByteI(i2cDeviceAddrRW);// отправляем АДРЕС SLAVE				*
     29a:	80 91 b6 00 	lds	r24, 0x00B6	; 0x8000b6 <i2cDeviceAddrRW>
     29e:	83 b9       	out	0x03, r24	; 3
     2a0:	85 e8       	ldi	r24, 0x85	; 133
     2a2:	86 bf       	out	0x36, r24	; 54
break; 				// выход из прерывания								*
     2a4:	73 c0       	rjmp	.+230    	; 0x38c <__vector_17+0x126>
//																		*
//++++++++++++++++++++++++++++++++++++++++++++++++++++++++++++++++++++++*
//	Master передал SLAVE'у АДРЕС+W. Slave передал ГОТОВНОСТЬ К ПРИЕМУ 	*
//----------------------------------------------------------------------*
case TWI_MTX_ADR_ACK: // 0х18 Получено подтверждение адреса				*
	i2cCurrentIndex=0; // Обнуляем текущий индекс отправляемого байта	*
     2a6:	10 92 cb 00 	sts	0x00CB, r1	; 0x8000cb <i2cCurrentIndex>
//======================================================================*
//	Master передал ДАННЫЕ, Slave готов к ПРИЕМУ СЛЕДУЮЩЕГО БАЙТА		*
//----------------------------------------------------------------------*
case TWI_MTX_DATA_ACK:// 0х28 Slave ГОТОВ к ПРИЕМУ ДАННЫХ				*
	// ПРОВЕРЯЕМ наличие байтов для ОТПРАВКИ							* 
	if (i2cCurrentIndex<i2cMasterSendPlan) 							//	*
     2aa:	90 91 cb 00 	lds	r25, 0x00CB	; 0x8000cb <i2cCurrentIndex>
     2ae:	80 91 b5 00 	lds	r24, 0x00B5	; 0x8000b5 <i2cMasterSendPlan>
     2b2:	98 17       	cp	r25, r24
     2b4:	70 f4       	brcc	.+28     	; 0x2d2 <__vector_17+0x6c>
	{																//	*
		i2cSendByteI(i2cMasterBuf[i2cCurrentIndex++]);// Загружаем БАЙТ	*
     2b6:	e0 91 cb 00 	lds	r30, 0x00CB	; 0x8000cb <i2cCurrentIndex>
     2ba:	81 e0       	ldi	r24, 0x01	; 1
     2bc:	8e 0f       	add	r24, r30
     2be:	80 93 cb 00 	sts	0x00CB, r24	; 0x8000cb <i2cCurrentIndex>
     2c2:	f0 e0       	ldi	r31, 0x00	; 0
     2c4:	e9 54       	subi	r30, 0x49	; 73
     2c6:	ff 4f       	sbci	r31, 0xFF	; 255
     2c8:	80 81       	ld	r24, Z
     2ca:	83 b9       	out	0x03, r24	; 3
     2cc:	85 e8       	ldi	r24, 0x85	; 133
     2ce:	86 bf       	out	0x36, r24	; 54
     2d0:	5d c0       	rjmp	.+186    	; 0x38c <__vector_17+0x126>
	}											  // и отправляем		*
	else															//	*
	{																//	*
		// все байт переданы											*
		// Теперь Проверяем необходимость приема данных					*
		if (!(i2cMasterReceivePlan))								//	*
     2d2:	80 91 b4 00 	lds	r24, 0x00B4	; 0x8000b4 <__data_end>
     2d6:	81 11       	cpse	r24, r1
     2d8:	05 c0       	rjmp	.+10     	; 0x2e4 <__vector_17+0x7e>
		{															//	*
		// Принимать ничего не требуется								*
		#ifdef Slave_MODE											//	*
		i2cSendStopSlaveI();;// отправляем СТОП с дальнейшим приемом АДРЕС
		#else														//	*
		i2cSendStopI();		// отправляем СТОП							*
     2da:	85 e9       	ldi	r24, 0x95	; 149
     2dc:	86 bf       	out	0x36, r24	; 54
		#endif														//	*
		I2Cstate=I2C_IDLE;	// флаг шины выставляем в ожидании			*
     2de:	10 92 cc 00 	sts	0x00CC, r1	; 0x8000cc <I2Cstate>
     2e2:	54 c0       	rjmp	.+168    	; 0x38c <__vector_17+0x126>
		}															//	*
		else														//	*
		{															//	*
		// Нам необходимо принять байты									*
		i2cDeviceAddrRW|=1; // Редактируем адрес на чтение				*
     2e4:	80 91 b6 00 	lds	r24, 0x00B6	; 0x8000b6 <i2cDeviceAddrRW>
     2e8:	81 60       	ori	r24, 0x01	; 1
     2ea:	80 93 b6 00 	sts	0x00B6, r24	; 0x8000b6 <i2cDeviceAddrRW>
		i2cSendStartI();	// Отправляем ПОВТОРНЫЙ СТАРТ				*
     2ee:	85 ea       	ldi	r24, 0xA5	; 165
     2f0:	86 bf       	out	0x36, r24	; 54
     2f2:	4c c0       	rjmp	.+152    	; 0x38c <__vector_17+0x126>
//======================================================================*
//	Master передал АДРЕС-ЧТЕНИЕ. Slave передал ГОТОВНОСТЬ К ПЕРЕДАЧИ 	*
//----------------------------------------------------------------------*
case TWI_MRX_ADR_ACK:  //0х40 Slave выдал ПОДТВЕРЖДЕНИЕ на				* 
					   //	  принятый АДРЕС+R							*
	i2cCurrentIndex=0;	// Текущий адрес принимаемого байта				*
     2f4:	10 92 cb 00 	sts	0x00CB, r1	; 0x8000cb <i2cCurrentIndex>
	// Проверяем что делать дальше										*
	switch(i2cMasterReceivePlan)									//	*
     2f8:	80 91 b4 00 	lds	r24, 0x00B4	; 0x8000b4 <__data_end>
     2fc:	88 23       	and	r24, r24
     2fe:	19 f0       	breq	.+6      	; 0x306 <__vector_17+0xa0>
     300:	81 30       	cpi	r24, 0x01	; 1
     302:	31 f0       	breq	.+12     	; 0x310 <__vector_17+0xaa>
     304:	08 c0       	rjmp	.+16     	; 0x316 <__vector_17+0xb0>
	{																//	*
	case 0: 														//	*
			#ifdef Slave_MODE										//	*
			i2cSendStopSlaveI();	// отправляем СТОП с приемом АДРЕС	*
			#else													//	*
			i2cSendStopI();		// отправляем СТОП						*
     306:	85 e9       	ldi	r24, 0x95	; 149
     308:	86 bf       	out	0x36, r24	; 54
			#endif													//	*
			I2Cstate=I2C_IDLE;	// флаг шины выставляем в ожидании		*
     30a:	10 92 cc 00 	sts	0x00CC, r1	; 0x8000cc <I2Cstate>
			break;													//	*
     30e:	3e c0       	rjmp	.+124    	; 0x38c <__vector_17+0x126>
	case 1:	i2cSendNAskI();// Master запросит только 1 байт				*
     310:	85 e8       	ldi	r24, 0x85	; 133
     312:	86 bf       	out	0x36, r24	; 54
			break;													//	*
     314:	3b c0       	rjmp	.+118    	; 0x38c <__vector_17+0x126>
	default: i2cSendAskI(); // Master запросит при приеме СЛЕДУЮЩИЙ БАЙТ*
     316:	85 ec       	ldi	r24, 0xC5	; 197
     318:	86 bf       	out	0x36, r24	; 54
			break;													//	*
     31a:	38 c0       	rjmp	.+112    	; 0x38c <__vector_17+0x126>
break;  // выход из прерывания											*
//======================================================================*
//	Master принял ДАННЫЕ и отравил запрос SLAVE на ПЕРЕДАЧУ СЛЕД. БАЙТА	* 
//----------------------------------------------------------------------*
case TWI_MRX_DATA_ACK: //0х50 Мастер отправил запрос на СЛЕД. ПЕРЕДАЧ 	*
	i2cMasterBuf[i2cCurrentIndex++]=TWDR; // Копируем ДАННЫЕ			*
     31c:	e0 91 cb 00 	lds	r30, 0x00CB	; 0x8000cb <i2cCurrentIndex>
     320:	81 e0       	ldi	r24, 0x01	; 1
     322:	8e 0f       	add	r24, r30
     324:	80 93 cb 00 	sts	0x00CB, r24	; 0x8000cb <i2cCurrentIndex>
     328:	f0 e0       	ldi	r31, 0x00	; 0
     32a:	83 b1       	in	r24, 0x03	; 3
     32c:	e9 54       	subi	r30, 0x49	; 73
     32e:	ff 4f       	sbci	r31, 0xFF	; 255
     330:	80 83       	st	Z, r24
	// ПРоверка на принятие последнего БАЙТ ПОСЛЕДНИЙ					*
	if (i2cCurrentIndex<i2cMasterReceivePlan-1)						//	*
     332:	20 91 cb 00 	lds	r18, 0x00CB	; 0x8000cb <i2cCurrentIndex>
     336:	80 91 b4 00 	lds	r24, 0x00B4	; 0x8000b4 <__data_end>
     33a:	30 e0       	ldi	r19, 0x00	; 0
     33c:	90 e0       	ldi	r25, 0x00	; 0
     33e:	01 97       	sbiw	r24, 0x01	; 1
     340:	28 17       	cp	r18, r24
     342:	39 07       	cpc	r19, r25
     344:	1c f4       	brge	.+6      	; 0x34c <__vector_17+0xe6>
	// Это не последний ПРИНИМАЕМЫЙ БАЙТ								*
	i2cSendAskI(); // Master запросит при приеме СЛЕДУЮЩИЙ БАЙТ			*
     346:	85 ec       	ldi	r24, 0xC5	; 197
     348:	86 bf       	out	0x36, r24	; 54
     34a:	20 c0       	rjmp	.+64     	; 0x38c <__vector_17+0x126>
	else															//	*
	// Это последний принятый быйт									//	*
	i2cSendNAskI();// Master не отправит подтверждение на следующий БАЙТ*
     34c:	85 e8       	ldi	r24, 0x85	; 133
     34e:	86 bf       	out	0x36, r24	; 54
     350:	1d c0       	rjmp	.+58     	; 0x38c <__vector_17+0x126>
//----------------------------------------------------------------------*
case TWI_MRX_DATA_NACK: // 0х58 Получен последний байт данных 			*
						//      от ведомого устройства, 				*
						//		МАСТЕР НЕ отправил ПОДТВЕРЖДЕНИЕ 		*
						//												*
	i2cMasterBuf[i2cCurrentIndex++]=TWDR; // копируем последний			*
     352:	e0 91 cb 00 	lds	r30, 0x00CB	; 0x8000cb <i2cCurrentIndex>
     356:	81 e0       	ldi	r24, 0x01	; 1
     358:	8e 0f       	add	r24, r30
     35a:	80 93 cb 00 	sts	0x00CB, r24	; 0x8000cb <i2cCurrentIndex>
     35e:	f0 e0       	ldi	r31, 0x00	; 0
     360:	83 b1       	in	r24, 0x03	; 3
     362:	e9 54       	subi	r30, 0x49	; 73
     364:	ff 4f       	sbci	r31, 0xFF	; 255
     366:	80 83       	st	Z, r24
						//		байт в приемный буфер					*
	i2cMasterReceivePlan=0;	// Все данные переданны, Отправлять нечего	*
     368:	10 92 b4 00 	sts	0x00B4, r1	; 0x8000b4 <__data_end>
//----------------------------------------------------------------------* 
case TWI_MTX_ADR_NACK: //0х20 Подтверждение АДРЕСа на ЗАПИСЬ Не Получено*
	#ifdef Slave_MODE												//	*
	i2cSendStopSlaveI();	// отправляем СТОП с приемом АДРЕС				*
	#else															//	*
	i2cSendStopI();		// отправляем СТОП								*
     36c:	85 e9       	ldi	r24, 0x95	; 149
     36e:	86 bf       	out	0x36, r24	; 54
	#endif															//	*
	I2Cstate=I2C_IDLE; // СОСТОЯНИЕ АВТОМАТА в ОЖИДАНИЕ					*
     370:	10 92 cc 00 	sts	0x00CC, r1	; 0x8000cc <I2Cstate>
break; // выход из прерывания											*
     374:	0b c0       	rjmp	.+22     	; 0x38c <__vector_17+0x126>
//***********************************************************************
//***********************************************************************
//	Потеря арбитража													*
//----------------------------------------------------------------------* 
case TWI_MTX_ARB_LOST:												//	*
	TWCR=(1<<TWINT)|(1<<TWSTA)|(TWCR&TWCR_CMD_MASK);				//	*
     376:	86 b7       	in	r24, 0x36	; 54
     378:	8f 70       	andi	r24, 0x0F	; 15
     37a:	80 6a       	ori	r24, 0xA0	; 160
     37c:	86 bf       	out	0x36, r24	; 54
	I2Cstate=I2C_IDLE; // СОСТОЯНИЕ АВТОМАТА в ОЖИДАНИЕ					*
     37e:	10 92 cc 00 	sts	0x00CC, r1	; 0x8000cc <I2Cstate>
break;  // выход из прерывания											*
     382:	04 c0       	rjmp	.+8      	; 0x38c <__vector_17+0x126>
case TWI_NO_STATE:  // 0xF8 неопределенное состояние; TWINT = “0”		*
break;																//	*
//----------------------------------------------------------------------*
case  TWI_BUS_ERROR:	// 	0x00 ошибка на шине из-за 					*
						//	некоректного расположения СТАРТ или СТОП	*
	i2cSendStopI();		//	ОТПРАВИЛИ СТОП								*
     384:	85 e9       	ldi	r24, 0x95	; 149
     386:	86 bf       	out	0x36, r24	; 54
	I2Cstate=I2C_IDLE;	// 	Состояние ФЛАГа автомата в ОЖИДАНИИ			*
     388:	10 92 cc 00 	sts	0x00CC, r1	; 0x8000cc <I2Cstate>
break;																//	*
//***********************************************************************
}	//	Конец Case														*
}	//	конец прерывания TWI											*
     38c:	ff 91       	pop	r31
     38e:	ef 91       	pop	r30
     390:	bf 91       	pop	r27
     392:	af 91       	pop	r26
     394:	9f 91       	pop	r25
     396:	8f 91       	pop	r24
     398:	3f 91       	pop	r19
     39a:	2f 91       	pop	r18
     39c:	0f 90       	pop	r0
     39e:	0f be       	out	0x3f, r0	; 63
     3a0:	0f 90       	pop	r0
     3a2:	1f 90       	pop	r1
     3a4:	18 95       	reti

000003a6 <counter_init>:
uint16_t old_time = 0, time_from_rds = 0;

void counter_init()
{
	//счетчик секунд
	TCCR1B |= (1<<WGM12);
     3a6:	8e b5       	in	r24, 0x2e	; 46
     3a8:	88 60       	ori	r24, 0x08	; 8
     3aa:	8e bd       	out	0x2e, r24	; 46
	TIMSK |= (1<<OCIE1A);
     3ac:	89 b7       	in	r24, 0x39	; 57
     3ae:	80 61       	ori	r24, 0x10	; 16
     3b0:	89 bf       	out	0x39, r24	; 57
	OCR1AH = 0x30;
     3b2:	80 e3       	ldi	r24, 0x30	; 48
     3b4:	8b bd       	out	0x2b, r24	; 43
	OCR1AL = 0xD4;
     3b6:	84 ed       	ldi	r24, 0xD4	; 212
     3b8:	8a bd       	out	0x2a, r24	; 42
	TCCR1B |= (1<<CS11);
     3ba:	8e b5       	in	r24, 0x2e	; 46
     3bc:	82 60       	ori	r24, 0x02	; 2
     3be:	8e bd       	out	0x2e, r24	; 46
	
	//счетчик ШИМ
	TCCR2 |= (1<<WGM21)|(1<<CS22);
     3c0:	85 b5       	in	r24, 0x25	; 37
     3c2:	8c 60       	ori	r24, 0x0C	; 12
     3c4:	85 bd       	out	0x25, r24	; 37
	TIMSK |= (1<<OCIE2);
     3c6:	89 b7       	in	r24, 0x39	; 57
     3c8:	80 68       	ori	r24, 0x80	; 128
     3ca:	89 bf       	out	0x39, r24	; 57
	OCR2 = 0x40;
     3cc:	80 e4       	ldi	r24, 0x40	; 64
     3ce:	83 bd       	out	0x23, r24	; 35
     3d0:	08 95       	ret

000003d2 <indicators_init>:
}

void indicators_init()
{
	DDRD |= (1<<7)|(1<<6)|(1<<5)|(1<<4)|(1<<2)|(1<<3); //настройка анодных и катодных выходов
     3d2:	81 b3       	in	r24, 0x11	; 17
     3d4:	8c 6f       	ori	r24, 0xFC	; 252
     3d6:	81 bb       	out	0x11, r24	; 17
	PORTD = 0;
     3d8:	12 ba       	out	0x12, r1	; 18
	DDRB = 0xFF; //весь порт на выход
     3da:	8f ef       	ldi	r24, 0xFF	; 255
     3dc:	87 bb       	out	0x17, r24	; 23
	PORTB = 0;
     3de:	18 ba       	out	0x18, r1	; 24
     3e0:	08 95       	ret

000003e2 <next_anod>:
}

void next_anod()
{
	PORTD &= ~(1<<(anod+3));
     3e2:	22 b3       	in	r18, 0x12	; 18
     3e4:	30 91 60 00 	lds	r19, 0x0060	; 0x800060 <__data_start>
     3e8:	3d 5f       	subi	r19, 0xFD	; 253
     3ea:	81 e0       	ldi	r24, 0x01	; 1
     3ec:	90 e0       	ldi	r25, 0x00	; 0
     3ee:	02 c0       	rjmp	.+4      	; 0x3f4 <next_anod+0x12>
     3f0:	88 0f       	add	r24, r24
     3f2:	99 1f       	adc	r25, r25
     3f4:	3a 95       	dec	r19
     3f6:	e2 f7       	brpl	.-8      	; 0x3f0 <next_anod+0xe>
     3f8:	80 95       	com	r24
     3fa:	82 23       	and	r24, r18
     3fc:	82 bb       	out	0x12, r24	; 18
	PORTB = 0;
     3fe:	18 ba       	out	0x18, r1	; 24
	//_delay_ms(100);
	PORTD &= ~((1<<2)|(1<<3));
     400:	82 b3       	in	r24, 0x12	; 18
     402:	83 7f       	andi	r24, 0xF3	; 243
     404:	82 bb       	out	0x12, r24	; 18
	
	if(anod!=4)
     406:	80 91 60 00 	lds	r24, 0x0060	; 0x800060 <__data_start>
     40a:	84 30       	cpi	r24, 0x04	; 4
     40c:	21 f0       	breq	.+8      	; 0x416 <__LOCK_REGION_LENGTH__+0x16>
	{
		anod++;
     40e:	8f 5f       	subi	r24, 0xFF	; 255
     410:	80 93 60 00 	sts	0x0060, r24	; 0x800060 <__data_start>
     414:	03 c0       	rjmp	.+6      	; 0x41c <__LOCK_REGION_LENGTH__+0x1c>
	}
	else
		anod = 1;
     416:	81 e0       	ldi	r24, 0x01	; 1
     418:	80 93 60 00 	sts	0x0060, r24	; 0x800060 <__data_start>
	
	PORTD |= (1<<(anod+3));	
     41c:	32 b3       	in	r19, 0x12	; 18
     41e:	20 91 60 00 	lds	r18, 0x0060	; 0x800060 <__data_start>
     422:	2d 5f       	subi	r18, 0xFD	; 253
     424:	81 e0       	ldi	r24, 0x01	; 1
     426:	90 e0       	ldi	r25, 0x00	; 0
     428:	02 c0       	rjmp	.+4      	; 0x42e <__LOCK_REGION_LENGTH__+0x2e>
     42a:	88 0f       	add	r24, r24
     42c:	99 1f       	adc	r25, r25
     42e:	2a 95       	dec	r18
     430:	e2 f7       	brpl	.-8      	; 0x42a <__LOCK_REGION_LENGTH__+0x2a>
     432:	83 2b       	or	r24, r19
     434:	82 bb       	out	0x12, r24	; 18
     436:	08 95       	ret

00000438 <catod>:
}

void catod( uint8_t number)
{
	switch(number)
     438:	90 e0       	ldi	r25, 0x00	; 0
     43a:	8a 30       	cpi	r24, 0x0A	; 10
     43c:	91 05       	cpc	r25, r1
     43e:	10 f5       	brcc	.+68     	; 0x484 <__stack+0x25>
     440:	fc 01       	movw	r30, r24
     442:	e4 59       	subi	r30, 0x94	; 148
     444:	ff 4f       	sbci	r31, 0xFF	; 255
     446:	09 94       	ijmp
	{
		case 0:
			PORTD &= ~(1<<3);
     448:	93 98       	cbi	0x12, 3	; 18
			PORTD |= (1<<3);
     44a:	93 9a       	sbi	0x12, 3	; 18
			break;
     44c:	08 95       	ret
		case 1:
			PORTB = 1;
     44e:	81 e0       	ldi	r24, 0x01	; 1
     450:	88 bb       	out	0x18, r24	; 24
			break;
     452:	08 95       	ret
		case 2:
			PORTB = 2;
     454:	82 e0       	ldi	r24, 0x02	; 2
     456:	88 bb       	out	0x18, r24	; 24
			break;
     458:	08 95       	ret
		case 3:
		PORTB = 4;
     45a:	84 e0       	ldi	r24, 0x04	; 4
     45c:	88 bb       	out	0x18, r24	; 24
		break;
     45e:	08 95       	ret
		case 4:
		PORTB = 8;
     460:	88 e0       	ldi	r24, 0x08	; 8
     462:	88 bb       	out	0x18, r24	; 24
		break;
     464:	08 95       	ret
		case 5:
		PORTB = 16;
     466:	80 e1       	ldi	r24, 0x10	; 16
     468:	88 bb       	out	0x18, r24	; 24
		break;
     46a:	08 95       	ret
		case 6:
		PORTB = 32;
     46c:	80 e2       	ldi	r24, 0x20	; 32
     46e:	88 bb       	out	0x18, r24	; 24
		break;
     470:	08 95       	ret
		case 7:
		PORTB = 64;
     472:	80 e4       	ldi	r24, 0x40	; 64
     474:	88 bb       	out	0x18, r24	; 24
		break;
     476:	08 95       	ret
		case 8:
		PORTB = 128;
     478:	80 e8       	ldi	r24, 0x80	; 128
     47a:	88 bb       	out	0x18, r24	; 24
		break;
     47c:	08 95       	ret
		case 9:
		PORTD &= ~(1<<2);
     47e:	92 98       	cbi	0x12, 2	; 18
		PORTD |= (1<<2);
     480:	92 9a       	sbi	0x12, 2	; 18
		break;
     482:	08 95       	ret
		default:
		PORTB = 0;
     484:	18 ba       	out	0x18, r1	; 24
		PORTD &=~((1<<2)|(1<<3));
     486:	82 b3       	in	r24, 0x12	; 18
     488:	83 7f       	andi	r24, 0xF3	; 243
     48a:	82 bb       	out	0x12, r24	; 18
     48c:	08 95       	ret

0000048e <anti_catod>:
	}
}

void anti_catod()
{
     48e:	0f 93       	push	r16
     490:	1f 93       	push	r17
     492:	cf 93       	push	r28
     494:	04 e0       	ldi	r16, 0x04	; 4
     496:	10 e0       	ldi	r17, 0x00	; 0
	for(int a=0;a<4;a++)
	{
		next_anod();
     498:	a4 df       	rcall	.-184    	; 0x3e2 <next_anod>
     49a:	c0 e0       	ldi	r28, 0x00	; 0
		for(int i=0;i<10;i++)
		{
			catod(i);
     49c:	8c 2f       	mov	r24, r28
     49e:	cc df       	rcall	.-104    	; 0x438 <catod>
	#else
		//round up by default
		__ticks_dc = (uint32_t)(ceil(fabs(__tmp)));
	#endif

	__builtin_avr_delay_cycles(__ticks_dc);
     4a0:	87 ea       	ldi	r24, 0xA7	; 167
     4a2:	91 e6       	ldi	r25, 0x61	; 97
     4a4:	01 97       	sbiw	r24, 0x01	; 1
     4a6:	f1 f7       	brne	.-4      	; 0x4a4 <anti_catod+0x16>
     4a8:	00 c0       	rjmp	.+0      	; 0x4aa <anti_catod+0x1c>
     4aa:	00 00       	nop
     4ac:	cf 5f       	subi	r28, 0xFF	; 255
void anti_catod()
{
	for(int a=0;a<4;a++)
	{
		next_anod();
		for(int i=0;i<10;i++)
     4ae:	ca 30       	cpi	r28, 0x0A	; 10
     4b0:	a9 f7       	brne	.-22     	; 0x49c <anti_catod+0xe>
     4b2:	01 50       	subi	r16, 0x01	; 1
     4b4:	11 09       	sbc	r17, r1
	}
}

void anti_catod()
{
	for(int a=0;a<4;a++)
     4b6:	81 f7       	brne	.-32     	; 0x498 <anti_catod+0xa>
		{
			catod(i);
			_delay_ms(100);
		}
	}
}
     4b8:	cf 91       	pop	r28
     4ba:	1f 91       	pop	r17
     4bc:	0f 91       	pop	r16
     4be:	08 95       	ret

000004c0 <__vector_6>:
ISR (TIMER1_COMPA_vect)
{
     4c0:	1f 92       	push	r1
     4c2:	0f 92       	push	r0
     4c4:	0f b6       	in	r0, 0x3f	; 63
     4c6:	0f 92       	push	r0
     4c8:	11 24       	eor	r1, r1
     4ca:	2f 93       	push	r18
     4cc:	3f 93       	push	r19
     4ce:	4f 93       	push	r20
     4d0:	5f 93       	push	r21
     4d2:	6f 93       	push	r22
     4d4:	7f 93       	push	r23
     4d6:	8f 93       	push	r24
     4d8:	9f 93       	push	r25
     4da:	af 93       	push	r26
     4dc:	bf 93       	push	r27
     4de:	ef 93       	push	r30
     4e0:	ff 93       	push	r31
	time_100ms++;
     4e2:	80 91 d5 00 	lds	r24, 0x00D5	; 0x8000d5 <time_100ms>
     4e6:	90 91 d6 00 	lds	r25, 0x00D6	; 0x8000d6 <time_100ms+0x1>
     4ea:	01 96       	adiw	r24, 0x01	; 1
     4ec:	90 93 d6 00 	sts	0x00D6, r25	; 0x8000d6 <time_100ms+0x1>
     4f0:	80 93 d5 00 	sts	0x00D5, r24	; 0x8000d5 <time_100ms>
	if(time_100ms == 600)
     4f4:	80 91 d5 00 	lds	r24, 0x00D5	; 0x8000d5 <time_100ms>
     4f8:	90 91 d6 00 	lds	r25, 0x00D6	; 0x8000d6 <time_100ms+0x1>
     4fc:	88 35       	cpi	r24, 0x58	; 88
     4fe:	92 40       	sbci	r25, 0x02	; 2
     500:	89 f5       	brne	.+98     	; 0x564 <__vector_6+0xa4>
	{
		hard_time++;
     502:	80 91 d3 00 	lds	r24, 0x00D3	; 0x8000d3 <hard_time>
     506:	90 91 d4 00 	lds	r25, 0x00D4	; 0x8000d4 <hard_time+0x1>
     50a:	01 96       	adiw	r24, 0x01	; 1
     50c:	90 93 d4 00 	sts	0x00D4, r25	; 0x8000d4 <hard_time+0x1>
     510:	80 93 d3 00 	sts	0x00D3, r24	; 0x8000d3 <hard_time>
		time_100ms = 0;
     514:	10 92 d6 00 	sts	0x00D6, r1	; 0x8000d6 <time_100ms+0x1>
     518:	10 92 d5 00 	sts	0x00D5, r1	; 0x8000d5 <time_100ms>
		display = hard_time;
     51c:	80 91 d3 00 	lds	r24, 0x00D3	; 0x8000d3 <hard_time>
     520:	90 91 d4 00 	lds	r25, 0x00D4	; 0x8000d4 <hard_time+0x1>
     524:	90 93 d2 00 	sts	0x00D2, r25	; 0x8000d2 <display+0x1>
     528:	80 93 d1 00 	sts	0x00D1, r24	; 0x8000d1 <display>
		if((display%60) == 30)
     52c:	40 91 d1 00 	lds	r20, 0x00D1	; 0x8000d1 <display>
     530:	50 91 d2 00 	lds	r21, 0x00D2	; 0x8000d2 <display+0x1>
     534:	9a 01       	movw	r18, r20
     536:	a9 e8       	ldi	r26, 0x89	; 137
     538:	b8 e8       	ldi	r27, 0x88	; 136
     53a:	7a d6       	rcall	.+3316   	; 0x1230 <__umulhisi3>
     53c:	96 95       	lsr	r25
     53e:	87 95       	ror	r24
     540:	92 95       	swap	r25
     542:	82 95       	swap	r24
     544:	8f 70       	andi	r24, 0x0F	; 15
     546:	89 27       	eor	r24, r25
     548:	9f 70       	andi	r25, 0x0F	; 15
     54a:	89 27       	eor	r24, r25
     54c:	6c e3       	ldi	r22, 0x3C	; 60
     54e:	68 9f       	mul	r22, r24
     550:	90 01       	movw	r18, r0
     552:	69 9f       	mul	r22, r25
     554:	30 0d       	add	r19, r0
     556:	11 24       	eor	r1, r1
     558:	42 1b       	sub	r20, r18
     55a:	53 0b       	sbc	r21, r19
     55c:	4e 31       	cpi	r20, 0x1E	; 30
     55e:	51 05       	cpc	r21, r1
     560:	09 f4       	brne	.+2      	; 0x564 <__vector_6+0xa4>
			anti_catod();//каждые пол часа антиотравление катодов
     562:	95 df       	rcall	.-214    	; 0x48e <anti_catod>
	}
}
     564:	ff 91       	pop	r31
     566:	ef 91       	pop	r30
     568:	bf 91       	pop	r27
     56a:	af 91       	pop	r26
     56c:	9f 91       	pop	r25
     56e:	8f 91       	pop	r24
     570:	7f 91       	pop	r23
     572:	6f 91       	pop	r22
     574:	5f 91       	pop	r21
     576:	4f 91       	pop	r20
     578:	3f 91       	pop	r19
     57a:	2f 91       	pop	r18
     57c:	0f 90       	pop	r0
     57e:	0f be       	out	0x3f, r0	; 63
     580:	0f 90       	pop	r0
     582:	1f 90       	pop	r1
     584:	18 95       	reti

00000586 <__vector_3>:

ISR (TIMER2_COMP_vect)
{
     586:	1f 92       	push	r1
     588:	0f 92       	push	r0
     58a:	0f b6       	in	r0, 0x3f	; 63
     58c:	0f 92       	push	r0
     58e:	11 24       	eor	r1, r1
     590:	2f 93       	push	r18
     592:	3f 93       	push	r19
     594:	4f 93       	push	r20
     596:	5f 93       	push	r21
     598:	6f 93       	push	r22
     59a:	7f 93       	push	r23
     59c:	8f 93       	push	r24
     59e:	9f 93       	push	r25
     5a0:	af 93       	push	r26
     5a2:	bf 93       	push	r27
     5a4:	ef 93       	push	r30
     5a6:	ff 93       	push	r31
	next_anod();
     5a8:	1c df       	rcall	.-456    	; 0x3e2 <next_anod>
	switch(anod)
     5aa:	80 91 60 00 	lds	r24, 0x0060	; 0x800060 <__data_start>
     5ae:	82 30       	cpi	r24, 0x02	; 2
     5b0:	e9 f1       	breq	.+122    	; 0x62c <__vector_3+0xa6>
     5b2:	18 f4       	brcc	.+6      	; 0x5ba <__vector_3+0x34>
     5b4:	81 30       	cpi	r24, 0x01	; 1
     5b6:	41 f0       	breq	.+16     	; 0x5c8 <__vector_3+0x42>
     5b8:	9c c0       	rjmp	.+312    	; 0x6f2 <__vector_3+0x16c>
     5ba:	83 30       	cpi	r24, 0x03	; 3
     5bc:	09 f4       	brne	.+2      	; 0x5c0 <__vector_3+0x3a>
     5be:	5b c0       	rjmp	.+182    	; 0x676 <__vector_3+0xf0>
     5c0:	84 30       	cpi	r24, 0x04	; 4
     5c2:	09 f4       	brne	.+2      	; 0x5c6 <__vector_3+0x40>
     5c4:	82 c0       	rjmp	.+260    	; 0x6ca <__vector_3+0x144>
     5c6:	95 c0       	rjmp	.+298    	; 0x6f2 <__vector_3+0x16c>
	{
		case 1:
		catod((display%60)%10);
     5c8:	40 91 d1 00 	lds	r20, 0x00D1	; 0x8000d1 <display>
     5cc:	50 91 d2 00 	lds	r21, 0x00D2	; 0x8000d2 <display+0x1>
     5d0:	9a 01       	movw	r18, r20
     5d2:	a9 e8       	ldi	r26, 0x89	; 137
     5d4:	b8 e8       	ldi	r27, 0x88	; 136
     5d6:	2c d6       	rcall	.+3160   	; 0x1230 <__umulhisi3>
     5d8:	96 95       	lsr	r25
     5da:	87 95       	ror	r24
     5dc:	92 95       	swap	r25
     5de:	82 95       	swap	r24
     5e0:	8f 70       	andi	r24, 0x0F	; 15
     5e2:	89 27       	eor	r24, r25
     5e4:	9f 70       	andi	r25, 0x0F	; 15
     5e6:	89 27       	eor	r24, r25
     5e8:	6c e3       	ldi	r22, 0x3C	; 60
     5ea:	68 9f       	mul	r22, r24
     5ec:	90 01       	movw	r18, r0
     5ee:	69 9f       	mul	r22, r25
     5f0:	30 0d       	add	r19, r0
     5f2:	11 24       	eor	r1, r1
     5f4:	42 1b       	sub	r20, r18
     5f6:	53 0b       	sbc	r21, r19
     5f8:	9a 01       	movw	r18, r20
     5fa:	ad ec       	ldi	r26, 0xCD	; 205
     5fc:	bc ec       	ldi	r27, 0xCC	; 204
     5fe:	18 d6       	rcall	.+3120   	; 0x1230 <__umulhisi3>
     600:	96 95       	lsr	r25
     602:	87 95       	ror	r24
     604:	96 95       	lsr	r25
     606:	87 95       	ror	r24
     608:	96 95       	lsr	r25
     60a:	87 95       	ror	r24
     60c:	9c 01       	movw	r18, r24
     60e:	22 0f       	add	r18, r18
     610:	33 1f       	adc	r19, r19
     612:	88 0f       	add	r24, r24
     614:	99 1f       	adc	r25, r25
     616:	88 0f       	add	r24, r24
     618:	99 1f       	adc	r25, r25
     61a:	88 0f       	add	r24, r24
     61c:	99 1f       	adc	r25, r25
     61e:	82 0f       	add	r24, r18
     620:	93 1f       	adc	r25, r19
     622:	24 2f       	mov	r18, r20
     624:	28 1b       	sub	r18, r24
     626:	82 2f       	mov	r24, r18
     628:	07 df       	rcall	.-498    	; 0x438 <catod>
		break;
     62a:	63 c0       	rjmp	.+198    	; 0x6f2 <__vector_3+0x16c>
		case 2:
		catod((display%60)/10);
     62c:	40 91 d1 00 	lds	r20, 0x00D1	; 0x8000d1 <display>
     630:	50 91 d2 00 	lds	r21, 0x00D2	; 0x8000d2 <display+0x1>
     634:	9a 01       	movw	r18, r20
     636:	a9 e8       	ldi	r26, 0x89	; 137
     638:	b8 e8       	ldi	r27, 0x88	; 136
     63a:	fa d5       	rcall	.+3060   	; 0x1230 <__umulhisi3>
     63c:	96 95       	lsr	r25
     63e:	87 95       	ror	r24
     640:	92 95       	swap	r25
     642:	82 95       	swap	r24
     644:	8f 70       	andi	r24, 0x0F	; 15
     646:	89 27       	eor	r24, r25
     648:	9f 70       	andi	r25, 0x0F	; 15
     64a:	89 27       	eor	r24, r25
     64c:	6c e3       	ldi	r22, 0x3C	; 60
     64e:	68 9f       	mul	r22, r24
     650:	90 01       	movw	r18, r0
     652:	69 9f       	mul	r22, r25
     654:	30 0d       	add	r19, r0
     656:	11 24       	eor	r1, r1
     658:	ca 01       	movw	r24, r20
     65a:	82 1b       	sub	r24, r18
     65c:	93 0b       	sbc	r25, r19
     65e:	9c 01       	movw	r18, r24
     660:	ad ec       	ldi	r26, 0xCD	; 205
     662:	bc ec       	ldi	r27, 0xCC	; 204
     664:	e5 d5       	rcall	.+3018   	; 0x1230 <__umulhisi3>
     666:	96 95       	lsr	r25
     668:	87 95       	ror	r24
     66a:	96 95       	lsr	r25
     66c:	87 95       	ror	r24
     66e:	96 95       	lsr	r25
     670:	87 95       	ror	r24
     672:	e2 de       	rcall	.-572    	; 0x438 <catod>
		break;
     674:	3e c0       	rjmp	.+124    	; 0x6f2 <__vector_3+0x16c>
		case 3:
		catod((display/60)%10);
     676:	20 91 d1 00 	lds	r18, 0x00D1	; 0x8000d1 <display>
     67a:	30 91 d2 00 	lds	r19, 0x00D2	; 0x8000d2 <display+0x1>
     67e:	a9 e8       	ldi	r26, 0x89	; 137
     680:	b8 e8       	ldi	r27, 0x88	; 136
     682:	d6 d5       	rcall	.+2988   	; 0x1230 <__umulhisi3>
     684:	ac 01       	movw	r20, r24
     686:	56 95       	lsr	r21
     688:	47 95       	ror	r20
     68a:	52 95       	swap	r21
     68c:	42 95       	swap	r20
     68e:	4f 70       	andi	r20, 0x0F	; 15
     690:	45 27       	eor	r20, r21
     692:	5f 70       	andi	r21, 0x0F	; 15
     694:	45 27       	eor	r20, r21
     696:	9a 01       	movw	r18, r20
     698:	ad ec       	ldi	r26, 0xCD	; 205
     69a:	bc ec       	ldi	r27, 0xCC	; 204
     69c:	c9 d5       	rcall	.+2962   	; 0x1230 <__umulhisi3>
     69e:	96 95       	lsr	r25
     6a0:	87 95       	ror	r24
     6a2:	96 95       	lsr	r25
     6a4:	87 95       	ror	r24
     6a6:	96 95       	lsr	r25
     6a8:	87 95       	ror	r24
     6aa:	9c 01       	movw	r18, r24
     6ac:	22 0f       	add	r18, r18
     6ae:	33 1f       	adc	r19, r19
     6b0:	88 0f       	add	r24, r24
     6b2:	99 1f       	adc	r25, r25
     6b4:	88 0f       	add	r24, r24
     6b6:	99 1f       	adc	r25, r25
     6b8:	88 0f       	add	r24, r24
     6ba:	99 1f       	adc	r25, r25
     6bc:	82 0f       	add	r24, r18
     6be:	93 1f       	adc	r25, r19
     6c0:	24 2f       	mov	r18, r20
     6c2:	28 1b       	sub	r18, r24
     6c4:	82 2f       	mov	r24, r18
     6c6:	b8 de       	rcall	.-656    	; 0x438 <catod>
		break;
     6c8:	14 c0       	rjmp	.+40     	; 0x6f2 <__vector_3+0x16c>
		case 4:
		catod((display/60)/10);
     6ca:	20 91 d1 00 	lds	r18, 0x00D1	; 0x8000d1 <display>
     6ce:	30 91 d2 00 	lds	r19, 0x00D2	; 0x8000d2 <display+0x1>
     6d2:	36 95       	lsr	r19
     6d4:	27 95       	ror	r18
     6d6:	36 95       	lsr	r19
     6d8:	27 95       	ror	r18
     6da:	36 95       	lsr	r19
     6dc:	27 95       	ror	r18
     6de:	af e4       	ldi	r26, 0x4F	; 79
     6e0:	bb e1       	ldi	r27, 0x1B	; 27
     6e2:	a6 d5       	rcall	.+2892   	; 0x1230 <__umulhisi3>
     6e4:	96 95       	lsr	r25
     6e6:	87 95       	ror	r24
     6e8:	96 95       	lsr	r25
     6ea:	87 95       	ror	r24
     6ec:	96 95       	lsr	r25
     6ee:	87 95       	ror	r24
     6f0:	a3 de       	rcall	.-698    	; 0x438 <catod>
		break;
	}
		
}
     6f2:	ff 91       	pop	r31
     6f4:	ef 91       	pop	r30
     6f6:	bf 91       	pop	r27
     6f8:	af 91       	pop	r26
     6fa:	9f 91       	pop	r25
     6fc:	8f 91       	pop	r24
     6fe:	7f 91       	pop	r23
     700:	6f 91       	pop	r22
     702:	5f 91       	pop	r21
     704:	4f 91       	pop	r20
     706:	3f 91       	pop	r19
     708:	2f 91       	pop	r18
     70a:	0f 90       	pop	r0
     70c:	0f be       	out	0x3f, r0	; 63
     70e:	0f 90       	pop	r0
     710:	1f 90       	pop	r1
     712:	18 95       	reti

00000714 <main>:

int main(void)
{
	UART_Init();
     714:	42 d5       	rcall	.+2692   	; 0x119a <UART_Init>
	i2cInit();
     716:	45 dd       	rcall	.-1398   	; 0x1a2 <i2cInit>
	FM__init();
     718:	67 d0       	rcall	.+206    	; 0x7e8 <FM__init>
	indicators_init();
     71a:	5b de       	rcall	.-842    	; 0x3d2 <indicators_init>
	counter_init();
     71c:	44 de       	rcall	.-888    	; 0x3a6 <counter_init>
	UART_Send_Str("Initialization complete!\n\r");
     71e:	81 e6       	ldi	r24, 0x61	; 97
     720:	90 e0       	ldi	r25, 0x00	; 0
     722:	48 d5       	rcall	.+2704   	; 0x11b4 <UART_Send_Str>
	sei();
     724:	78 94       	sei
	//FM_setFrequency(9110);
    
	uint16_t temp = SEEK_FOR_RDS();//сканирование FM диапазона и посик самой сильной станции с RDS
     726:	94 d2       	rcall	.+1320   	; 0xc50 <SEEK_FOR_RDS>
	FM_setFrequency(temp);//настройка модуля на найденную станцию
     728:	10 d2       	rcall	.+1056   	; 0xb4a <FM_setFrequency>
	
	while(1)
	{
		old_time = FM_setTime(old_time); //получение времени с RDS
     72a:	80 91 cf 00 	lds	r24, 0x00CF	; 0x8000cf <old_time>
     72e:	90 91 d0 00 	lds	r25, 0x00D0	; 0x8000d0 <old_time+0x1>
     732:	5f d0       	rcall	.+190    	; 0x7f2 <FM_setTime>
     734:	90 93 d0 00 	sts	0x00D0, r25	; 0x8000d0 <old_time+0x1>
     738:	80 93 cf 00 	sts	0x00CF, r24	; 0x8000cf <old_time>
		if(old_time == 3333)
     73c:	85 30       	cpi	r24, 0x05	; 5
     73e:	2d e0       	ldi	r18, 0x0D	; 13
     740:	92 07       	cpc	r25, r18
     742:	19 f4       	brne	.+6      	; 0x74a <main+0x36>
		{
			temp = SEEK_FOR_RDS();
     744:	85 d2       	rcall	.+1290   	; 0xc50 <SEEK_FOR_RDS>
			FM_setFrequency(temp);
     746:	01 d2       	rcall	.+1026   	; 0xb4a <FM_setFrequency>
     748:	f0 cf       	rjmp	.-32     	; 0x72a <main+0x16>
		}
		
		else
		{
			time_from_rds = old_time;
     74a:	90 93 ce 00 	sts	0x00CE, r25	; 0x8000ce <time_from_rds+0x1>
     74e:	80 93 cd 00 	sts	0x00CD, r24	; 0x8000cd <time_from_rds>
					
			if(hard_time != time_from_rds) //калибровка времени, если часы не совпадают
     752:	20 91 d3 00 	lds	r18, 0x00D3	; 0x8000d3 <hard_time>
     756:	30 91 d4 00 	lds	r19, 0x00D4	; 0x8000d4 <hard_time+0x1>
     75a:	82 17       	cp	r24, r18
     75c:	93 07       	cpc	r25, r19
     75e:	29 f3       	breq	.-54     	; 0x72a <main+0x16>
			{
				hard_time = time_from_rds;
     760:	90 93 d4 00 	sts	0x00D4, r25	; 0x8000d4 <hard_time+0x1>
     764:	80 93 d3 00 	sts	0x00D3, r24	; 0x8000d3 <hard_time>
				time_100ms = 0; //обнуление тиков таймера
     768:	10 92 d6 00 	sts	0x00D6, r1	; 0x8000d6 <time_100ms+0x1>
     76c:	10 92 d5 00 	sts	0x00D5, r1	; 0x8000d5 <time_100ms>
     770:	dc cf       	rjmp	.-72     	; 0x72a <main+0x16>

00000772 <FM_setRegister>:

const int RDA5807M_BandLowerLimits[5] PROGMEM = {8700, 7600, 7600, 6500, 5000};
const int RDA5807M_BandHigherLimits[5] PROGMEM = {10800, 9100, 10800, 7600,	6500};
const int RDA5807M_ChannelSpacings[4] PROGMEM = {100, 200, 50, 25};
	
void FM_setRegister(uint8_t reg, uint16_t value) {
     772:	cf 93       	push	r28
     774:	df 93       	push	r29
     776:	c6 2f       	mov	r28, r22
     778:	d7 2f       	mov	r29, r23
	i2cMasterUploadBuf(reg);
     77a:	23 dd       	rcall	.-1466   	; 0x1c2 <i2cMasterUploadBuf>
	i2cMasterUploadBuf(value>>8);
     77c:	8d 2f       	mov	r24, r29
     77e:	21 dd       	rcall	.-1470   	; 0x1c2 <i2cMasterUploadBuf>
	reg = (0x00FF & value);
	i2cMasterUploadBuf(reg);
     780:	8c 2f       	mov	r24, r28
     782:	1f dd       	rcall	.-1474   	; 0x1c2 <i2cMasterUploadBuf>
	i2cMasterSendBuf(RDA5807M_I2C_ADDR_W);
     784:	81 e1       	ldi	r24, 0x11	; 17
     786:	30 dd       	rcall	.-1440   	; 0x1e8 <i2cMasterSendBuf>
}
     788:	df 91       	pop	r29
     78a:	cf 91       	pop	r28
     78c:	08 95       	ret

0000078e <FM_getRegister>:

uint16_t FM_getRegister(uint8_t reg) {
	uint16_t result;
	i2cMasterUploadBuf(reg);
     78e:	19 dd       	rcall	.-1486   	; 0x1c2 <i2cMasterUploadBuf>
	i2cMasterReceive(RDA5807M_I2C_ADDR_W, 2);
     790:	62 e0       	ldi	r22, 0x02	; 2
     792:	81 e1       	ldi	r24, 0x11	; 17
     794:	3e dd       	rcall	.-1412   	; 0x212 <i2cMasterReceive>
	for(uint8_t i=0;i<2;i++)
	i2cMasterDownloadBufIndex((uint8_t*)&a[i] , i);
     796:	60 e0       	ldi	r22, 0x00	; 0
     798:	88 ee       	ldi	r24, 0xE8	; 232
     79a:	90 e0       	ldi	r25, 0x00	; 0
     79c:	57 dd       	rcall	.-1362   	; 0x24c <i2cMasterDownloadBufIndex>
     79e:	61 e0       	ldi	r22, 0x01	; 1
     7a0:	89 ee       	ldi	r24, 0xE9	; 233
     7a2:	90 e0       	ldi	r25, 0x00	; 0
     7a4:	53 dd       	rcall	.-1370   	; 0x24c <i2cMasterDownloadBufIndex>
	result = (uint16_t)a[0] << 8;
     7a6:	e8 ee       	ldi	r30, 0xE8	; 232
     7a8:	f0 e0       	ldi	r31, 0x00	; 0
     7aa:	80 81       	ld	r24, Z
     7ac:	90 e0       	ldi	r25, 0x00	; 0
     7ae:	98 2f       	mov	r25, r24
     7b0:	88 27       	eor	r24, r24
	result |= a[1];
     7b2:	21 81       	ldd	r18, Z+1	; 0x01
	return result;
}
     7b4:	82 2b       	or	r24, r18
     7b6:	08 95       	ret

000007b8 <FM_updateRegister>:

void FM_updateRegister(uint8_t reg,uint16_t mask, uint16_t value) {
     7b8:	ff 92       	push	r15
     7ba:	0f 93       	push	r16
     7bc:	1f 93       	push	r17
     7be:	cf 93       	push	r28
     7c0:	df 93       	push	r29
     7c2:	f8 2e       	mov	r15, r24
     7c4:	eb 01       	movw	r28, r22
     7c6:	8a 01       	movw	r16, r20
	FM_setRegister(reg, FM_getRegister(reg) & ~mask | value);
     7c8:	e2 df       	rcall	.-60     	; 0x78e <FM_getRegister>
     7ca:	c0 95       	com	r28
     7cc:	d0 95       	com	r29
     7ce:	8c 23       	and	r24, r28
     7d0:	9d 23       	and	r25, r29
     7d2:	bc 01       	movw	r22, r24
     7d4:	60 2b       	or	r22, r16
     7d6:	71 2b       	or	r23, r17
     7d8:	8f 2d       	mov	r24, r15
     7da:	cb df       	rcall	.-106    	; 0x772 <FM_setRegister>
}
     7dc:	df 91       	pop	r29
     7de:	cf 91       	pop	r28
     7e0:	1f 91       	pop	r17
     7e2:	0f 91       	pop	r16
     7e4:	ff 90       	pop	r15
     7e6:	08 95       	ret

000007e8 <FM__init>:

void FM__init (void) {
	FM_setRegister(RDA5807M_REG_CONFIG, RDA5807M_FLG_DHIZ | RDA5807M_FLG_DMUTE | RDA5807M_FLG_BASS | RDA5807M_FLG_SEEKUP | RDA5807M_FLG_RDS | RDA5807M_FLG_NEW | RDA5807M_FLG_ENABLE);
     7e8:	6d e0       	ldi	r22, 0x0D	; 13
     7ea:	72 ed       	ldi	r23, 0xD2	; 210
     7ec:	82 e0       	ldi	r24, 0x02	; 2
     7ee:	c1 df       	rcall	.-126    	; 0x772 <FM_setRegister>
     7f0:	08 95       	ret

000007f2 <FM_setTime>:
}


uint16_t FM_setTime(uint16_t old_time) {
     7f2:	2f 92       	push	r2
     7f4:	3f 92       	push	r3
     7f6:	4f 92       	push	r4
     7f8:	5f 92       	push	r5
     7fa:	6f 92       	push	r6
     7fc:	7f 92       	push	r7
     7fe:	8f 92       	push	r8
     800:	9f 92       	push	r9
     802:	af 92       	push	r10
     804:	bf 92       	push	r11
     806:	cf 92       	push	r12
     808:	df 92       	push	r13
     80a:	ef 92       	push	r14
     80c:	ff 92       	push	r15
     80e:	0f 93       	push	r16
     810:	1f 93       	push	r17
     812:	cf 93       	push	r28
     814:	df 93       	push	r29
     816:	cd b7       	in	r28, 0x3d	; 61
     818:	de b7       	in	r29, 0x3e	; 62
     81a:	62 97       	sbiw	r28, 0x12	; 18
     81c:	0f b6       	in	r0, 0x3f	; 63
     81e:	f8 94       	cli
     820:	de bf       	out	0x3e, r29	; 62
     822:	0f be       	out	0x3f, r0	; 63
     824:	cd bf       	out	0x3d, r28	; 61
     826:	4c 01       	movw	r8, r24
	unsigned int RDS[6];
	char grp, ver;
	uint16_t offset = 0, mins = 0;
	uint16_t bad_paket = 0;
	
	for(int h=0;h<3;h++)
     828:	c1 2c       	mov	r12, r1
     82a:	d1 2c       	mov	r13, r1
	
	uint16_t time_rds[3];
	unsigned int RDS[6];
	char grp, ver;
	uint16_t offset = 0, mins = 0;
	uint16_t bad_paket = 0;
     82c:	41 2c       	mov	r4, r1
     82e:	51 2c       	mov	r5, r1
uint16_t FM_setTime(uint16_t old_time) {
	
	uint16_t time_rds[3];
	unsigned int RDS[6];
	char grp, ver;
	uint16_t offset = 0, mins = 0;
     830:	e1 2c       	mov	r14, r1
     832:	f1 2c       	mov	r15, r1
     834:	a1 2c       	mov	r10, r1
     836:	b1 2c       	mov	r11, r1
			{
				UART_Send_Str("QTime: ");
				UART_Send_Char((mins/60)/10+0x30);
				UART_Send_Char((mins/60)%10+0x30);
				UART_Send_Str(":");
				UART_Send_Char((mins%60)/10+0x30);
     838:	0f 2e       	mov	r0, r31
     83a:	fc e3       	ldi	r31, 0x3C	; 60
     83c:	6f 2e       	mov	r6, r31
     83e:	f0 2d       	mov	r31, r0
				UART_Send_Char((mins%60)%10+0x30);
				UART_Send_Char(13);
				time_rds[h] = mins;
				old_time=mins;
				if((h == 2)&((((int)(time_rds[1] - time_rds[0]) == 1)&((int)(time_rds[2] - time_rds[1]) == 1))))
     840:	33 24       	eor	r3, r3
     842:	33 94       	inc	r3
			{
				mins -= 30 * (offset & 0x1F);
			}
			else
			{
				mins += 30 * (offset & 0x1F);
     844:	0f 2e       	mov	r0, r31
     846:	fe e1       	ldi	r31, 0x1E	; 30
     848:	7f 2e       	mov	r7, r31
     84a:	f0 2d       	mov	r31, r0
	uint16_t offset = 0, mins = 0;
	uint16_t bad_paket = 0;
	
	for(int h=0;h<3;h++)
	{
		i2cMasterUploadBuf(0x0A);
     84c:	8a e0       	ldi	r24, 0x0A	; 10
     84e:	b9 dc       	rcall	.-1678   	; 0x1c2 <i2cMasterUploadBuf>
		i2cMasterReceive(RDA5807M_I2C_ADDR_R, 12);
     850:	6c e0       	ldi	r22, 0x0C	; 12
     852:	80 e1       	ldi	r24, 0x10	; 16
     854:	de dc       	rcall	.-1604   	; 0x212 <i2cMasterReceive>
     856:	0a ed       	ldi	r16, 0xDA	; 218
     858:	10 e0       	ldi	r17, 0x00	; 0
		for(uint8_t i=0;i<12;i++)
     85a:	21 2c       	mov	r2, r1
		i2cMasterDownloadBufIndex((uint8_t*)&b[i] , i);
     85c:	62 2d       	mov	r22, r2
     85e:	c8 01       	movw	r24, r16
     860:	f5 dc       	rcall	.-1558   	; 0x24c <i2cMasterDownloadBufIndex>
	
	for(int h=0;h<3;h++)
	{
		i2cMasterUploadBuf(0x0A);
		i2cMasterReceive(RDA5807M_I2C_ADDR_R, 12);
		for(uint8_t i=0;i<12;i++)
     862:	23 94       	inc	r2
     864:	0f 5f       	subi	r16, 0xFF	; 255
     866:	1f 4f       	sbci	r17, 0xFF	; 255
     868:	2c e0       	ldi	r18, 0x0C	; 12
     86a:	22 12       	cpse	r2, r18
     86c:	f7 cf       	rjmp	.-18     	; 0x85c <FM_setTime+0x6a>
     86e:	fe 01       	movw	r30, r28
     870:	37 96       	adiw	r30, 0x07	; 7
     872:	20 e0       	ldi	r18, 0x00	; 0
     874:	30 e0       	ldi	r19, 0x00	; 0
		i2cMasterDownloadBufIndex((uint8_t*)&b[i] , i);
		
		for (uint8_t i = 0; i < 6; i++)
		{
			RDS[i] = 256 * b[i*2] + b[i*2+1];
     876:	d9 01       	movw	r26, r18
     878:	a6 52       	subi	r26, 0x26	; 38
     87a:	bf 4f       	sbci	r27, 0xFF	; 255
     87c:	8c 91       	ld	r24, X
     87e:	d9 01       	movw	r26, r18
     880:	a5 52       	subi	r26, 0x25	; 37
     882:	bf 4f       	sbci	r27, 0xFF	; 255
     884:	4c 91       	ld	r20, X
     886:	90 e0       	ldi	r25, 0x00	; 0
     888:	98 2f       	mov	r25, r24
     88a:	88 27       	eor	r24, r24
     88c:	84 0f       	add	r24, r20
     88e:	91 1d       	adc	r25, r1
     890:	81 93       	st	Z+, r24
     892:	91 93       	st	Z+, r25
     894:	2e 5f       	subi	r18, 0xFE	; 254
     896:	3f 4f       	sbci	r19, 0xFF	; 255
		i2cMasterUploadBuf(0x0A);
		i2cMasterReceive(RDA5807M_I2C_ADDR_R, 12);
		for(uint8_t i=0;i<12;i++)
		i2cMasterDownloadBufIndex((uint8_t*)&b[i] , i);
		
		for (uint8_t i = 0; i < 6; i++)
     898:	2c 30       	cpi	r18, 0x0C	; 12
     89a:	31 05       	cpc	r19, r1
     89c:	61 f7       	brne	.-40     	; 0x876 <FM_setTime+0x84>
		{
			RDS[i] = 256 * b[i*2] + b[i*2+1];
		}
		uint16_t block1 = RDS[2];
		uint16_t block2 = RDS[3];
     89e:	8d 85       	ldd	r24, Y+13	; 0x0d
     8a0:	9e 85       	ldd	r25, Y+14	; 0x0e
		uint16_t block4 = RDS[5];	
		uint16_t rdsready = RDS[0] & 0x8000;
		uint16_t rdssynchro = RDS[0] & 0x1000;
		uint16_t rdsblockerror = RDS[1] & 0x000C;
		
		if (rdssynchro != 0x1000){  // RDS not synchronised or tuning changed, reset all the RDS info.
     8a2:	2f 81       	ldd	r18, Y+7	; 0x07
     8a4:	38 85       	ldd	r19, Y+8	; 0x08
     8a6:	34 fd       	sbrc	r19, 4
     8a8:	02 c0       	rjmp	.+4      	; 0x8ae <FM_setTime+0xbc>
			mins = 0;
     8aa:	e1 2c       	mov	r14, r1
     8ac:	f1 2c       	mov	r15, r1
		}
		
		uint16_t rdsGroupType = 0x0A | ((block2 & 0xF000) >> 8) | ((block2 & 0x0800) >> 11);
		
		switch (rdsGroupType) {
     8ae:	9c 01       	movw	r18, r24
     8b0:	22 27       	eor	r18, r18
     8b2:	30 7f       	andi	r19, 0xF0	; 240
     8b4:	23 2f       	mov	r18, r19
     8b6:	33 27       	eor	r19, r19
     8b8:	88 27       	eor	r24, r24
     8ba:	98 70       	andi	r25, 0x08	; 8
     8bc:	89 2f       	mov	r24, r25
     8be:	99 27       	eor	r25, r25
     8c0:	86 95       	lsr	r24
     8c2:	86 95       	lsr	r24
     8c4:	86 95       	lsr	r24
     8c6:	82 2b       	or	r24, r18
     8c8:	93 2b       	or	r25, r19
     8ca:	8a 60       	ori	r24, 0x0A	; 10
     8cc:	8a 34       	cpi	r24, 0x4A	; 74
     8ce:	91 05       	cpc	r25, r1
     8d0:	09 f0       	breq	.+2      	; 0x8d4 <FM_setTime+0xe2>
     8d2:	01 c1       	rjmp	.+514    	; 0xad6 <FM_setTime+0x2e4>
		{
			RDS[i] = 256 * b[i*2] + b[i*2+1];
		}
		uint16_t block1 = RDS[2];
		uint16_t block2 = RDS[3];
		uint16_t block3 = RDS[4];
     8d4:	4f 85       	ldd	r20, Y+15	; 0x0f
     8d6:	58 89       	ldd	r21, Y+16	; 0x10
		uint16_t block4 = RDS[5];	
     8d8:	89 89       	ldd	r24, Y+17	; 0x11
     8da:	9a 89       	ldd	r25, Y+18	; 0x12
		uint16_t rdsGroupType = 0x0A | ((block2 & 0xF000) >> 8) | ((block2 & 0x0800) >> 11);
		
		switch (rdsGroupType) {
			case 0x4A:
			// РІСЂРµРјСЏ Рё РґР°С‚Р°
			if(rdsblockerror<3)
     8dc:	29 85       	ldd	r18, Y+9	; 0x09
     8de:	3a 85       	ldd	r19, Y+10	; 0x0a
     8e0:	2c 70       	andi	r18, 0x0C	; 12
     8e2:	33 27       	eor	r19, r19
     8e4:	23 30       	cpi	r18, 0x03	; 3
     8e6:	31 05       	cpc	r19, r1
     8e8:	28 f5       	brcc	.+74     	; 0x934 <FM_setTime+0x142>
			{ // limit RDS data errors as we have no correction code
				offset = (block4) & 0x003F; // 6 bits
     8ea:	5c 01       	movw	r10, r24
     8ec:	3f e3       	ldi	r19, 0x3F	; 63
     8ee:	a3 22       	and	r10, r19
     8f0:	bb 24       	eor	r11, r11
				mins = (block4 >> 6) & 0x003F; // 6 bits
				mins += 60 * (((block3 & 0x0001) << 4) | ((block4 >> 12) & 0x000F));
     8f2:	41 70       	andi	r20, 0x01	; 1
     8f4:	55 27       	eor	r21, r21
     8f6:	42 95       	swap	r20
     8f8:	52 95       	swap	r21
     8fa:	50 7f       	andi	r21, 0xF0	; 240
     8fc:	54 27       	eor	r21, r20
     8fe:	40 7f       	andi	r20, 0xF0	; 240
     900:	54 27       	eor	r21, r20
     902:	9c 01       	movw	r18, r24
     904:	23 2f       	mov	r18, r19
     906:	33 27       	eor	r19, r19
     908:	22 95       	swap	r18
     90a:	2f 70       	andi	r18, 0x0F	; 15
     90c:	42 2b       	or	r20, r18
     90e:	53 2b       	or	r21, r19
     910:	64 9e       	mul	r6, r20
     912:	70 01       	movw	r14, r0
     914:	65 9e       	mul	r6, r21
     916:	f0 0c       	add	r15, r0
     918:	11 24       	eor	r1, r1
     91a:	00 24       	eor	r0, r0
     91c:	88 0f       	add	r24, r24
     91e:	99 1f       	adc	r25, r25
     920:	00 1c       	adc	r0, r0
     922:	88 0f       	add	r24, r24
     924:	99 1f       	adc	r25, r25
     926:	00 1c       	adc	r0, r0
     928:	89 2f       	mov	r24, r25
     92a:	90 2d       	mov	r25, r0
     92c:	8f 73       	andi	r24, 0x3F	; 63
     92e:	99 27       	eor	r25, r25
     930:	e8 0e       	add	r14, r24
     932:	f9 1e       	adc	r15, r25
			}

			if (offset & 0x20)//Р·РЅР°Рє СЃРґРІРёРіР° С‡Р°СЃРѕРІРѕРіРѕ РїРѕСЏСЃР°, СЃРІРёРі Р·Р°РґР°РµС‚СЃСЏ РїРѕР»СѓС‡Р°СЃР°РјРё
     934:	a5 fe       	sbrs	r10, 5
     936:	0b c0       	rjmp	.+22     	; 0x94e <FM_setTime+0x15c>
			{
				mins -= 30 * (offset & 0x1F);
     938:	95 01       	movw	r18, r10
     93a:	2f 71       	andi	r18, 0x1F	; 31
     93c:	33 27       	eor	r19, r19
     93e:	72 9e       	mul	r7, r18
     940:	c0 01       	movw	r24, r0
     942:	73 9e       	mul	r7, r19
     944:	90 0d       	add	r25, r0
     946:	11 24       	eor	r1, r1
     948:	e8 1a       	sub	r14, r24
     94a:	f9 0a       	sbc	r15, r25
     94c:	0a c0       	rjmp	.+20     	; 0x962 <FM_setTime+0x170>
			}
			else
			{
				mins += 30 * (offset & 0x1F);
     94e:	95 01       	movw	r18, r10
     950:	2f 71       	andi	r18, 0x1F	; 31
     952:	33 27       	eor	r19, r19
     954:	72 9e       	mul	r7, r18
     956:	c0 01       	movw	r24, r0
     958:	73 9e       	mul	r7, r19
     95a:	90 0d       	add	r25, r0
     95c:	11 24       	eor	r1, r1
     95e:	e8 0e       	add	r14, r24
     960:	f9 1e       	adc	r15, r25
			}

			if(!(mins>480) & (mins<=1440))
     962:	81 ee       	ldi	r24, 0xE1	; 225
     964:	e8 16       	cp	r14, r24
     966:	81 e0       	ldi	r24, 0x01	; 1
     968:	f8 06       	cpc	r15, r24
     96a:	20 f4       	brcc	.+8      	; 0x974 <FM_setTime+0x182>
			{
				mins -= 1440;
     96c:	90 ea       	ldi	r25, 0xA0	; 160
     96e:	e9 1a       	sub	r14, r25
     970:	95 e0       	ldi	r25, 0x05	; 5
     972:	f9 0a       	sbc	r15, r25
			}
			if(old_time!=mins)
     974:	e8 14       	cp	r14, r8
     976:	f9 04       	cpc	r15, r9
     978:	09 f4       	brne	.+2      	; 0x97c <FM_setTime+0x18a>
     97a:	a8 c0       	rjmp	.+336    	; 0xacc <FM_setTime+0x2da>
			{
				UART_Send_Str("QTime: ");
     97c:	8c e7       	ldi	r24, 0x7C	; 124
     97e:	90 e0       	ldi	r25, 0x00	; 0
     980:	19 d4       	rcall	.+2098   	; 0x11b4 <UART_Send_Str>
				UART_Send_Char((mins/60)/10+0x30);
     982:	97 01       	movw	r18, r14
     984:	36 95       	lsr	r19
     986:	27 95       	ror	r18
     988:	36 95       	lsr	r19
     98a:	27 95       	ror	r18
     98c:	36 95       	lsr	r19
     98e:	27 95       	ror	r18
     990:	af e4       	ldi	r26, 0x4F	; 79
     992:	bb e1       	ldi	r27, 0x1B	; 27
     994:	4d d4       	rcall	.+2202   	; 0x1230 <__umulhisi3>
     996:	96 95       	lsr	r25
     998:	87 95       	ror	r24
     99a:	96 95       	lsr	r25
     99c:	87 95       	ror	r24
     99e:	96 95       	lsr	r25
     9a0:	87 95       	ror	r24
     9a2:	80 5d       	subi	r24, 0xD0	; 208
     9a4:	03 d4       	rcall	.+2054   	; 0x11ac <UART_Send_Char>
				UART_Send_Char((mins/60)%10+0x30);
     9a6:	97 01       	movw	r18, r14
     9a8:	a9 e8       	ldi	r26, 0x89	; 137
     9aa:	b8 e8       	ldi	r27, 0x88	; 136
     9ac:	41 d4       	rcall	.+2178   	; 0x1230 <__umulhisi3>
     9ae:	8c 01       	movw	r16, r24
     9b0:	16 95       	lsr	r17
     9b2:	07 95       	ror	r16
     9b4:	12 95       	swap	r17
     9b6:	02 95       	swap	r16
     9b8:	0f 70       	andi	r16, 0x0F	; 15
     9ba:	01 27       	eor	r16, r17
     9bc:	1f 70       	andi	r17, 0x0F	; 15
     9be:	01 27       	eor	r16, r17
     9c0:	98 01       	movw	r18, r16
     9c2:	ad ec       	ldi	r26, 0xCD	; 205
     9c4:	bc ec       	ldi	r27, 0xCC	; 204
     9c6:	34 d4       	rcall	.+2152   	; 0x1230 <__umulhisi3>
     9c8:	96 95       	lsr	r25
     9ca:	87 95       	ror	r24
     9cc:	96 95       	lsr	r25
     9ce:	87 95       	ror	r24
     9d0:	96 95       	lsr	r25
     9d2:	87 95       	ror	r24
     9d4:	9c 01       	movw	r18, r24
     9d6:	22 0f       	add	r18, r18
     9d8:	33 1f       	adc	r19, r19
     9da:	88 0f       	add	r24, r24
     9dc:	99 1f       	adc	r25, r25
     9de:	88 0f       	add	r24, r24
     9e0:	99 1f       	adc	r25, r25
     9e2:	88 0f       	add	r24, r24
     9e4:	99 1f       	adc	r25, r25
     9e6:	82 0f       	add	r24, r18
     9e8:	93 1f       	adc	r25, r19
     9ea:	98 01       	movw	r18, r16
     9ec:	28 1b       	sub	r18, r24
     9ee:	39 0b       	sbc	r19, r25
     9f0:	c9 01       	movw	r24, r18
     9f2:	80 5d       	subi	r24, 0xD0	; 208
     9f4:	db d3       	rcall	.+1974   	; 0x11ac <UART_Send_Char>
				UART_Send_Str(":");
     9f6:	84 e8       	ldi	r24, 0x84	; 132
     9f8:	90 e0       	ldi	r25, 0x00	; 0
     9fa:	dc d3       	rcall	.+1976   	; 0x11b4 <UART_Send_Str>
				UART_Send_Char((mins%60)/10+0x30);
     9fc:	60 9e       	mul	r6, r16
     9fe:	c0 01       	movw	r24, r0
     a00:	61 9e       	mul	r6, r17
     a02:	90 0d       	add	r25, r0
     a04:	11 24       	eor	r1, r1
     a06:	47 01       	movw	r8, r14
     a08:	88 1a       	sub	r8, r24
     a0a:	99 0a       	sbc	r9, r25
     a0c:	94 01       	movw	r18, r8
     a0e:	ad ec       	ldi	r26, 0xCD	; 205
     a10:	bc ec       	ldi	r27, 0xCC	; 204
     a12:	0e d4       	rcall	.+2076   	; 0x1230 <__umulhisi3>
     a14:	8c 01       	movw	r16, r24
     a16:	16 95       	lsr	r17
     a18:	07 95       	ror	r16
     a1a:	16 95       	lsr	r17
     a1c:	07 95       	ror	r16
     a1e:	16 95       	lsr	r17
     a20:	07 95       	ror	r16
     a22:	80 e3       	ldi	r24, 0x30	; 48
     a24:	80 0f       	add	r24, r16
     a26:	c2 d3       	rcall	.+1924   	; 0x11ac <UART_Send_Char>
				UART_Send_Char((mins%60)%10+0x30);
     a28:	c8 01       	movw	r24, r16
     a2a:	88 0f       	add	r24, r24
     a2c:	99 1f       	adc	r25, r25
     a2e:	00 0f       	add	r16, r16
     a30:	11 1f       	adc	r17, r17
     a32:	00 0f       	add	r16, r16
     a34:	11 1f       	adc	r17, r17
     a36:	00 0f       	add	r16, r16
     a38:	11 1f       	adc	r17, r17
     a3a:	08 0f       	add	r16, r24
     a3c:	19 1f       	adc	r17, r25
     a3e:	c4 01       	movw	r24, r8
     a40:	80 1b       	sub	r24, r16
     a42:	91 0b       	sbc	r25, r17
     a44:	80 5d       	subi	r24, 0xD0	; 208
     a46:	b2 d3       	rcall	.+1892   	; 0x11ac <UART_Send_Char>
				UART_Send_Char(13);
     a48:	8d e0       	ldi	r24, 0x0D	; 13
     a4a:	b0 d3       	rcall	.+1888   	; 0x11ac <UART_Send_Char>
				time_rds[h] = mins;
     a4c:	f6 01       	movw	r30, r12
     a4e:	ee 0f       	add	r30, r30
     a50:	ff 1f       	adc	r31, r31
     a52:	81 e0       	ldi	r24, 0x01	; 1
     a54:	90 e0       	ldi	r25, 0x00	; 0
     a56:	8c 0f       	add	r24, r28
     a58:	9d 1f       	adc	r25, r29
     a5a:	e8 0f       	add	r30, r24
     a5c:	f9 1f       	adc	r31, r25
     a5e:	f1 82       	std	Z+1, r15	; 0x01
     a60:	e0 82       	st	Z, r14
				old_time=mins;
				if((h == 2)&((((int)(time_rds[1] - time_rds[0]) == 1)&((int)(time_rds[2] - time_rds[1]) == 1))))
     a62:	4b 81       	ldd	r20, Y+3	; 0x03
     a64:	5c 81       	ldd	r21, Y+4	; 0x04
     a66:	89 81       	ldd	r24, Y+1	; 0x01
     a68:	9a 81       	ldd	r25, Y+2	; 0x02
     a6a:	9a 01       	movw	r18, r20
     a6c:	28 1b       	sub	r18, r24
     a6e:	39 0b       	sbc	r19, r25
     a70:	93 2d       	mov	r25, r3
     a72:	21 30       	cpi	r18, 0x01	; 1
     a74:	31 05       	cpc	r19, r1
     a76:	09 f0       	breq	.+2      	; 0xa7a <FM_setTime+0x288>
     a78:	90 e0       	ldi	r25, 0x00	; 0
     a7a:	2d 81       	ldd	r18, Y+5	; 0x05
     a7c:	3e 81       	ldd	r19, Y+6	; 0x06
     a7e:	24 1b       	sub	r18, r20
     a80:	35 0b       	sbc	r19, r21
     a82:	83 2d       	mov	r24, r3
     a84:	21 30       	cpi	r18, 0x01	; 1
     a86:	31 05       	cpc	r19, r1
     a88:	09 f0       	breq	.+2      	; 0xa8c <FM_setTime+0x29a>
     a8a:	80 e0       	ldi	r24, 0x00	; 0
     a8c:	89 23       	and	r24, r25
     a8e:	41 f0       	breq	.+16     	; 0xaa0 <FM_setTime+0x2ae>
     a90:	83 2d       	mov	r24, r3
     a92:	92 e0       	ldi	r25, 0x02	; 2
     a94:	c9 16       	cp	r12, r25
     a96:	d1 04       	cpc	r13, r1
     a98:	09 f0       	breq	.+2      	; 0xa9c <FM_setTime+0x2aa>
     a9a:	80 e0       	ldi	r24, 0x00	; 0
     a9c:	81 11       	cpse	r24, r1
     a9e:	2b c0       	rjmp	.+86     	; 0xaf6 <FM_setTime+0x304>
				{
					return old_time;
				}
				else
				{
					if(h==2)
     aa0:	22 e0       	ldi	r18, 0x02	; 2
     aa2:	c2 16       	cp	r12, r18
     aa4:	d1 04       	cpc	r13, r1
     aa6:	d9 f4       	brne	.+54     	; 0xade <FM_setTime+0x2ec>
					{
						time_rds[0]=0;
     aa8:	1a 82       	std	Y+2, r1	; 0x02
     aaa:	19 82       	std	Y+1, r1	; 0x01
						time_rds[1]=0;
     aac:	1c 82       	std	Y+4, r1	; 0x04
     aae:	1b 82       	std	Y+3, r1	; 0x03
						time_rds[2]=0;
     ab0:	1e 82       	std	Y+6, r1	; 0x06
     ab2:	1d 82       	std	Y+5, r1	; 0x05
						h=0;
						bad_paket++;
     ab4:	3f ef       	ldi	r19, 0xFF	; 255
     ab6:	43 1a       	sub	r4, r19
     ab8:	53 0a       	sbc	r5, r19
						if(bad_paket == 15)
     aba:	8f e0       	ldi	r24, 0x0F	; 15
     abc:	48 16       	cp	r4, r24
     abe:	51 04       	cpc	r5, r1
     ac0:	e9 f0       	breq	.+58     	; 0xafc <FM_setTime+0x30a>
     ac2:	47 01       	movw	r8, r14
	unsigned int RDS[6];
	char grp, ver;
	uint16_t offset = 0, mins = 0;
	uint16_t bad_paket = 0;
	
	for(int h=0;h<3;h++)
     ac4:	cc 24       	eor	r12, r12
     ac6:	c3 94       	inc	r12
     ac8:	d1 2c       	mov	r13, r1
     aca:	c0 ce       	rjmp	.-640    	; 0x84c <FM_setTime+0x5a>
							return 3333;
					}
				}
			}
			else
				h--;
     acc:	91 e0       	ldi	r25, 0x01	; 1
     ace:	c9 1a       	sub	r12, r25
     ad0:	d1 08       	sbc	r13, r1
     ad2:	47 01       	movw	r8, r14
     ad4:	05 c0       	rjmp	.+10     	; 0xae0 <FM_setTime+0x2ee>
			
			break;

			default:
				h--;
     ad6:	21 e0       	ldi	r18, 0x01	; 1
     ad8:	c2 1a       	sub	r12, r18
     ada:	d1 08       	sbc	r13, r1
				break;
     adc:	01 c0       	rjmp	.+2      	; 0xae0 <FM_setTime+0x2ee>
     ade:	47 01       	movw	r8, r14
	unsigned int RDS[6];
	char grp, ver;
	uint16_t offset = 0, mins = 0;
	uint16_t bad_paket = 0;
	
	for(int h=0;h<3;h++)
     ae0:	3f ef       	ldi	r19, 0xFF	; 255
     ae2:	c3 1a       	sub	r12, r19
     ae4:	d3 0a       	sbc	r13, r19
     ae6:	83 e0       	ldi	r24, 0x03	; 3
     ae8:	c8 16       	cp	r12, r24
     aea:	d1 04       	cpc	r13, r1
     aec:	0c f4       	brge	.+2      	; 0xaf0 <FM_setTime+0x2fe>
     aee:	ae ce       	rjmp	.-676    	; 0x84c <FM_setTime+0x5a>
			default:
				h--;
				break;
		}
	}
	return 9999;
     af0:	8f e0       	ldi	r24, 0x0F	; 15
     af2:	97 e2       	ldi	r25, 0x27	; 39
     af4:	05 c0       	rjmp	.+10     	; 0xb00 <FM_setTime+0x30e>
     af6:	8e 2d       	mov	r24, r14
     af8:	9f 2d       	mov	r25, r15
     afa:	02 c0       	rjmp	.+4      	; 0xb00 <FM_setTime+0x30e>
						time_rds[1]=0;
						time_rds[2]=0;
						h=0;
						bad_paket++;
						if(bad_paket == 15)
							return 3333;
     afc:	85 e0       	ldi	r24, 0x05	; 5
     afe:	9d e0       	ldi	r25, 0x0D	; 13
				h--;
				break;
		}
	}
	return 9999;
}
     b00:	62 96       	adiw	r28, 0x12	; 18
     b02:	0f b6       	in	r0, 0x3f	; 63
     b04:	f8 94       	cli
     b06:	de bf       	out	0x3e, r29	; 62
     b08:	0f be       	out	0x3f, r0	; 63
     b0a:	cd bf       	out	0x3d, r28	; 61
     b0c:	df 91       	pop	r29
     b0e:	cf 91       	pop	r28
     b10:	1f 91       	pop	r17
     b12:	0f 91       	pop	r16
     b14:	ff 90       	pop	r15
     b16:	ef 90       	pop	r14
     b18:	df 90       	pop	r13
     b1a:	cf 90       	pop	r12
     b1c:	bf 90       	pop	r11
     b1e:	af 90       	pop	r10
     b20:	9f 90       	pop	r9
     b22:	8f 90       	pop	r8
     b24:	7f 90       	pop	r7
     b26:	6f 90       	pop	r6
     b28:	5f 90       	pop	r5
     b2a:	4f 90       	pop	r4
     b2c:	3f 90       	pop	r3
     b2e:	2f 90       	pop	r2
     b30:	08 95       	ret

00000b32 <FM_getBandAndSpacing>:

uint16_t FM_getBandAndSpacing(void) {
	uint8_t band = FM_getRegister(RDA5807M_REG_TUNING) & (RDA5807M_BAND_MASK | RDA5807M_SPACE_MASK);
     b32:	83 e0       	ldi	r24, 0x03	; 3
     b34:	2c de       	rcall	.-936    	; 0x78e <FM_getRegister>
     b36:	28 2f       	mov	r18, r24
     b38:	2f 70       	andi	r18, 0x0F	; 15
	if (band & RDA5807M_BAND_MASK == BAND_EAST && !(FM_getRegister(RDA5807M_REG_BLEND) & RDA5807M_FLG_EASTBAND65M))
	// Lower band limit is 50MHz
	band = (band >> RDA5807M_BAND_SHIFT) + 1;
	else
	band >>= RDA5807M_BAND_SHIFT;
	return ((uint16_t)space<<8 | band);
     b3a:	83 70       	andi	r24, 0x03	; 3
     b3c:	90 e0       	ldi	r25, 0x00	; 0
     b3e:	98 2f       	mov	r25, r24
     b40:	88 27       	eor	r24, r24
     b42:	26 95       	lsr	r18
     b44:	26 95       	lsr	r18
}
     b46:	82 2b       	or	r24, r18
     b48:	08 95       	ret

00000b4a <FM_setFrequency>:

uint8_t FM_setFrequency(uint16_t frequency) {
     b4a:	cf 93       	push	r28
     b4c:	df 93       	push	r29
     b4e:	ec 01       	movw	r28, r24
	uint16_t spaceandband = FM_getBandAndSpacing();
     b50:	f0 df       	rcall	.-32     	; 0xb32 <FM_getBandAndSpacing>
	uint16_t origin = pgm_read_word(&RDA5807M_BandLowerLimits[spaceandband & 0x00FF]);
     b52:	9c 01       	movw	r18, r24
     b54:	33 27       	eor	r19, r19
     b56:	f9 01       	movw	r30, r18
     b58:	ee 0f       	add	r30, r30
     b5a:	ff 1f       	adc	r31, r31
     b5c:	e2 50       	subi	r30, 0x02	; 2
     b5e:	ff 4f       	sbci	r31, 0xFF	; 255
     b60:	45 91       	lpm	r20, Z+
     b62:	54 91       	lpm	r21, Z
	// Check that specified frequency falls within our current band limits
	if (frequency < origin || frequency > pgm_read_word(&RDA5807M_BandHigherLimits[spaceandband & 0x00FF]))
     b64:	c4 17       	cp	r28, r20
     b66:	d5 07       	cpc	r29, r21
     b68:	08 f4       	brcc	.+2      	; 0xb6c <FM_setFrequency+0x22>
     b6a:	38 c0       	rjmp	.+112    	; 0xbdc <FM_setFrequency+0x92>
     b6c:	f9 01       	movw	r30, r18
     b6e:	ee 0f       	add	r30, r30
     b70:	ff 1f       	adc	r31, r31
     b72:	ec 50       	subi	r30, 0x0C	; 12
     b74:	ff 4f       	sbci	r31, 0xFF	; 255
     b76:	25 91       	lpm	r18, Z+
     b78:	34 91       	lpm	r19, Z
     b7a:	2c 17       	cp	r18, r28
     b7c:	3d 07       	cpc	r19, r29
     b7e:	80 f1       	brcs	.+96     	; 0xbe0 <FM_setFrequency+0x96>
	return 1;
	// Adjust start offset
	frequency -= origin;
	uint8_t spacing = pgm_read_byte(&RDA5807M_ChannelSpacings[spaceandband>>8]);
     b80:	e9 2f       	mov	r30, r25
     b82:	ff 27       	eor	r31, r31
     b84:	ee 0f       	add	r30, r30
     b86:	ff 1f       	adc	r31, r31
     b88:	e4 51       	subi	r30, 0x14	; 20
     b8a:	ff 4f       	sbci	r31, 0xFF	; 255
     b8c:	e4 91       	lpm	r30, Z
	// Check that the given frequency can be tuned given current channel spacing
	if (frequency * 10 % spacing) return 1;
     b8e:	c4 1b       	sub	r28, r20
     b90:	d5 0b       	sbc	r29, r21
     b92:	ce 01       	movw	r24, r28
     b94:	88 0f       	add	r24, r24
     b96:	99 1f       	adc	r25, r25
     b98:	cc 0f       	add	r28, r28
     b9a:	dd 1f       	adc	r29, r29
     b9c:	cc 0f       	add	r28, r28
     b9e:	dd 1f       	adc	r29, r29
     ba0:	cc 0f       	add	r28, r28
     ba2:	dd 1f       	adc	r29, r29
     ba4:	c8 0f       	add	r28, r24
     ba6:	d9 1f       	adc	r29, r25
     ba8:	f0 e0       	ldi	r31, 0x00	; 0
     baa:	ce 01       	movw	r24, r28
     bac:	bf 01       	movw	r22, r30
     bae:	10 d3       	rcall	.+1568   	; 0x11d0 <__udivmodhi4>
     bb0:	89 2b       	or	r24, r25
     bb2:	c1 f4       	brne	.+48     	; 0xbe4 <FM_setFrequency+0x9a>
	// Attempt to tune to the requested frequency
	FM_updateRegister(RDA5807M_REG_TUNING, RDA5807M_CHAN_MASK | RDA5807M_FLG_TUNE,((frequency * 10 / spacing) << RDA5807M_CHAN_SHIFT) | RDA5807M_FLG_TUNE);
     bb4:	ce 01       	movw	r24, r28
     bb6:	bf 01       	movw	r22, r30
     bb8:	0b d3       	rcall	.+1558   	; 0x11d0 <__udivmodhi4>
     bba:	ab 01       	movw	r20, r22
     bbc:	00 24       	eor	r0, r0
     bbe:	56 95       	lsr	r21
     bc0:	47 95       	ror	r20
     bc2:	07 94       	ror	r0
     bc4:	56 95       	lsr	r21
     bc6:	47 95       	ror	r20
     bc8:	07 94       	ror	r0
     bca:	54 2f       	mov	r21, r20
     bcc:	40 2d       	mov	r20, r0
     bce:	40 61       	ori	r20, 0x10	; 16
     bd0:	60 ed       	ldi	r22, 0xD0	; 208
     bd2:	7f ef       	ldi	r23, 0xFF	; 255
     bd4:	83 e0       	ldi	r24, 0x03	; 3
     bd6:	f0 dd       	rcall	.-1056   	; 0x7b8 <FM_updateRegister>
	return 0;
     bd8:	80 e0       	ldi	r24, 0x00	; 0
     bda:	05 c0       	rjmp	.+10     	; 0xbe6 <FM_setFrequency+0x9c>
uint8_t FM_setFrequency(uint16_t frequency) {
	uint16_t spaceandband = FM_getBandAndSpacing();
	uint16_t origin = pgm_read_word(&RDA5807M_BandLowerLimits[spaceandband & 0x00FF]);
	// Check that specified frequency falls within our current band limits
	if (frequency < origin || frequency > pgm_read_word(&RDA5807M_BandHigherLimits[spaceandband & 0x00FF]))
	return 1;
     bdc:	81 e0       	ldi	r24, 0x01	; 1
     bde:	03 c0       	rjmp	.+6      	; 0xbe6 <FM_setFrequency+0x9c>
     be0:	81 e0       	ldi	r24, 0x01	; 1
     be2:	01 c0       	rjmp	.+2      	; 0xbe6 <FM_setFrequency+0x9c>
	// Adjust start offset
	frequency -= origin;
	uint8_t spacing = pgm_read_byte(&RDA5807M_ChannelSpacings[spaceandband>>8]);
	// Check that the given frequency can be tuned given current channel spacing
	if (frequency * 10 % spacing) return 1;
     be4:	81 e0       	ldi	r24, 0x01	; 1
	// Attempt to tune to the requested frequency
	FM_updateRegister(RDA5807M_REG_TUNING, RDA5807M_CHAN_MASK | RDA5807M_FLG_TUNE,((frequency * 10 / spacing) << RDA5807M_CHAN_SHIFT) | RDA5807M_FLG_TUNE);
	return 0;
}
     be6:	df 91       	pop	r29
     be8:	cf 91       	pop	r28
     bea:	08 95       	ret

00000bec <FM_getFrequency>:

uint16_t FM_getFrequency(void) {
     bec:	0f 93       	push	r16
     bee:	1f 93       	push	r17
     bf0:	cf 93       	push	r28
     bf2:	df 93       	push	r29
	uint16_t spaceandband = FM_getBandAndSpacing();
     bf4:	9e df       	rcall	.-196    	; 0xb32 <FM_getBandAndSpacing>
     bf6:	ec 01       	movw	r28, r24
	return pgm_read_word(&RDA5807M_BandLowerLimits[spaceandband & 0x00FF]) +
     bf8:	fc 01       	movw	r30, r24
     bfa:	ff 27       	eor	r31, r31
     bfc:	ee 0f       	add	r30, r30
     bfe:	ff 1f       	adc	r31, r31
     c00:	e2 50       	subi	r30, 0x02	; 2
     c02:	ff 4f       	sbci	r31, 0xFF	; 255
     c04:	05 91       	lpm	r16, Z+
     c06:	14 91       	lpm	r17, Z
	(FM_getRegister(RDA5807M_REG_STATUS) & RDA5807M_READCHAN_MASK) *
     c08:	8a e0       	ldi	r24, 0x0A	; 10
     c0a:	c1 dd       	rcall	.-1150   	; 0x78e <FM_getRegister>
	pgm_read_byte(&RDA5807M_ChannelSpacings[spaceandband>>8]) /	10;
     c0c:	ed 2f       	mov	r30, r29
     c0e:	ff 27       	eor	r31, r31
     c10:	ee 0f       	add	r30, r30
     c12:	ff 1f       	adc	r31, r31
     c14:	e4 51       	subi	r30, 0x14	; 20
     c16:	ff 4f       	sbci	r31, 0xFF	; 255
     c18:	e4 91       	lpm	r30, Z
	return 0;
}

uint16_t FM_getFrequency(void) {
	uint16_t spaceandband = FM_getBandAndSpacing();
	return pgm_read_word(&RDA5807M_BandLowerLimits[spaceandband & 0x00FF]) +
     c1a:	93 70       	andi	r25, 0x03	; 3
     c1c:	e8 9f       	mul	r30, r24
     c1e:	90 01       	movw	r18, r0
     c20:	e9 9f       	mul	r30, r25
     c22:	30 0d       	add	r19, r0
     c24:	11 24       	eor	r1, r1
     c26:	ad ec       	ldi	r26, 0xCD	; 205
     c28:	bc ec       	ldi	r27, 0xCC	; 204
     c2a:	02 d3       	rcall	.+1540   	; 0x1230 <__umulhisi3>
     c2c:	96 95       	lsr	r25
     c2e:	87 95       	ror	r24
     c30:	96 95       	lsr	r25
     c32:	87 95       	ror	r24
     c34:	96 95       	lsr	r25
     c36:	87 95       	ror	r24
	(FM_getRegister(RDA5807M_REG_STATUS) & RDA5807M_READCHAN_MASK) *
	pgm_read_byte(&RDA5807M_ChannelSpacings[spaceandband>>8]) /	10;
}
     c38:	80 0f       	add	r24, r16
     c3a:	91 1f       	adc	r25, r17
     c3c:	df 91       	pop	r29
     c3e:	cf 91       	pop	r28
     c40:	1f 91       	pop	r17
     c42:	0f 91       	pop	r16
     c44:	08 95       	ret

00000c46 <FM_getRSSI>:

uint8_t FM_getRSSI(void) {
	return (FM_getRegister(RDA5807M_REG_RSSI) & RDA5807M_RSSI_MASK) >> RDA5807M_RSSI_SHIFT;
     c46:	8b e0       	ldi	r24, 0x0B	; 11
     c48:	a2 dd       	rcall	.-1212   	; 0x78e <FM_getRegister>
}
     c4a:	89 2f       	mov	r24, r25
     c4c:	86 95       	lsr	r24
     c4e:	08 95       	ret

00000c50 <SEEK_FOR_RDS>:

struct max_station station = {0,0};
	
uint16_t SEEK_FOR_RDS()
{
     c50:	2f 92       	push	r2
     c52:	3f 92       	push	r3
     c54:	4f 92       	push	r4
     c56:	5f 92       	push	r5
     c58:	6f 92       	push	r6
     c5a:	7f 92       	push	r7
     c5c:	8f 92       	push	r8
     c5e:	9f 92       	push	r9
     c60:	af 92       	push	r10
     c62:	bf 92       	push	r11
     c64:	cf 92       	push	r12
     c66:	df 92       	push	r13
     c68:	ef 92       	push	r14
     c6a:	ff 92       	push	r15
     c6c:	0f 93       	push	r16
     c6e:	1f 93       	push	r17
     c70:	cf 93       	push	r28
     c72:	df 93       	push	r29
     c74:	00 d0       	rcall	.+0      	; 0xc76 <SEEK_FOR_RDS+0x26>
     c76:	00 d0       	rcall	.+0      	; 0xc78 <SEEK_FOR_RDS+0x28>
     c78:	cd b7       	in	r28, 0x3d	; 61
     c7a:	de b7       	in	r29, 0x3e	; 62
     c7c:	24 e1       	ldi	r18, 0x14	; 20
     c7e:	30 e0       	ldi	r19, 0x00	; 0
     c80:	3a 83       	std	Y+2, r19	; 0x02
     c82:	29 83       	std	Y+1, r18	; 0x01
		uint16_t temp1 = tempw%100000;
		uint16_t temp2 = temp1;
		tempw = temp1/1000;
		UART_Send_Char(tempw/10 + 0x30);
		UART_Send_Char(tempw%10 + 0x30);
		temp1 = temp1 % 1000;
     c84:	0f 2e       	mov	r0, r31
     c86:	f8 ee       	ldi	r31, 0xE8	; 232
     c88:	ef 2e       	mov	r14, r31
     c8a:	f3 e0       	ldi	r31, 0x03	; 3
     c8c:	ff 2e       	mov	r15, r31
     c8e:	f0 2d       	mov	r31, r0
		tempw = temp1/100;
		UART_Send_Char(tempw + 0x30);
		tempw = temp1 % 100;
     c90:	0f 2e       	mov	r0, r31
     c92:	f4 e6       	ldi	r31, 0x64	; 100
     c94:	bf 2e       	mov	r11, r31
     c96:	f0 2d       	mov	r31, r0
	char grp, ver;
	uint8_t ending = 0;
	uint16_t iter = 0;
	while(ending==0)
	{
		FM_updateRegister(RDA5807M_REG_CONFIG,(RDA5807M_FLG_SEEKUP | RDA5807M_FLG_SEEK | RDA5807M_FLG_SKMODE), (RDA5807M_FLG_SEEKUP | RDA5807M_FLG_SEEK | RDA5807M_FLG_SKMODE));
     c98:	40 e8       	ldi	r20, 0x80	; 128
     c9a:	53 e0       	ldi	r21, 0x03	; 3
     c9c:	60 e8       	ldi	r22, 0x80	; 128
     c9e:	73 e0       	ldi	r23, 0x03	; 3
     ca0:	82 e0       	ldi	r24, 0x02	; 2
     ca2:	8a dd       	rcall	.-1260   	; 0x7b8 <FM_updateRegister>
     ca4:	87 ea       	ldi	r24, 0xA7	; 167
     ca6:	91 e6       	ldi	r25, 0x61	; 97
     ca8:	01 97       	sbiw	r24, 0x01	; 1
     caa:	f1 f7       	brne	.-4      	; 0xca8 <SEEK_FOR_RDS+0x58>
     cac:	00 c0       	rjmp	.+0      	; 0xcae <SEEK_FOR_RDS+0x5e>
     cae:	00 00       	nop
		tempw = 0;
		tempq = 0;
		while(!(((tempw&0x4000)>>14)&((tempq&0x0080)>>7)))
		{
			_delay_ms(100);
			tempw = FM_getRegister(0x0A); //РѕР¶РёРґР°РЅРёРµ Р·Р°РІРµСЂС€РµРЅРёСЏ РЅР°СЃС‚СЂРѕР№РєРё
     cb0:	8a e0       	ldi	r24, 0x0A	; 10
     cb2:	6d dd       	rcall	.-1318   	; 0x78e <FM_getRegister>
     cb4:	9c 83       	std	Y+4, r25	; 0x04
     cb6:	8b 83       	std	Y+3, r24	; 0x03
			tempq = FM_getRegister(0x0B);
     cb8:	8b e0       	ldi	r24, 0x0B	; 11
     cba:	69 dd       	rcall	.-1326   	; 0x78e <FM_getRegister>
	while(ending==0)
	{
		FM_updateRegister(RDA5807M_REG_CONFIG,(RDA5807M_FLG_SEEKUP | RDA5807M_FLG_SEEK | RDA5807M_FLG_SKMODE), (RDA5807M_FLG_SEEKUP | RDA5807M_FLG_SEEK | RDA5807M_FLG_SKMODE));
		tempw = 0;
		tempq = 0;
		while(!(((tempw&0x4000)>>14)&((tempq&0x0080)>>7)))
     cbc:	eb 81       	ldd	r30, Y+3	; 0x03
     cbe:	fc 81       	ldd	r31, Y+4	; 0x04
     cc0:	e4 e0       	ldi	r30, 0x04	; 4
     cc2:	fe 9f       	mul	r31, r30
     cc4:	e1 2d       	mov	r30, r1
     cc6:	ff 27       	eor	r31, r31
     cc8:	11 24       	eor	r1, r1
     cca:	87 fb       	bst	r24, 7
     ccc:	00 27       	eor	r16, r16
     cce:	00 f9       	bld	r16, 0
     cd0:	10 e0       	ldi	r17, 0x00	; 0
     cd2:	e0 23       	and	r30, r16
     cd4:	f1 23       	and	r31, r17
     cd6:	ef 2b       	or	r30, r31
     cd8:	29 f3       	breq	.-54     	; 0xca4 <SEEK_FOR_RDS+0x54>
		{
			_delay_ms(100);
			tempw = FM_getRegister(0x0A); //РѕР¶РёРґР°РЅРёРµ Р·Р°РІРµСЂС€РµРЅРёСЏ РЅР°СЃС‚СЂРѕР№РєРё
			tempq = FM_getRegister(0x0B);
		}
		UART_Send_Str("found! ");
     cda:	86 e8       	ldi	r24, 0x86	; 134
     cdc:	90 e0       	ldi	r25, 0x00	; 0
     cde:	6a d2       	rcall	.+1236   	; 0x11b4 <UART_Send_Str>
		tempw = FM_getFrequency();
     ce0:	85 df       	rcall	.-246    	; 0xbec <FM_getFrequency>
			
		uint16_t temp1 = tempw%100000;
     ce2:	bc 01       	movw	r22, r24
     ce4:	80 e0       	ldi	r24, 0x00	; 0
     ce6:	90 e0       	ldi	r25, 0x00	; 0
     ce8:	20 ea       	ldi	r18, 0xA0	; 160
     cea:	36 e8       	ldi	r19, 0x86	; 134
     cec:	41 e0       	ldi	r20, 0x01	; 1
     cee:	50 e0       	ldi	r21, 0x00	; 0
     cf0:	83 d2       	rcall	.+1286   	; 0x11f8 <__divmodsi4>
     cf2:	2b 01       	movw	r4, r22
     cf4:	3c 01       	movw	r6, r24
		uint16_t temp2 = temp1;
		tempw = temp1/1000;
		UART_Send_Char(tempw/10 + 0x30);
     cf6:	9b 01       	movw	r18, r22
     cf8:	32 95       	swap	r19
     cfa:	22 95       	swap	r18
     cfc:	2f 70       	andi	r18, 0x0F	; 15
     cfe:	23 27       	eor	r18, r19
     d00:	3f 70       	andi	r19, 0x0F	; 15
     d02:	23 27       	eor	r18, r19
     d04:	a7 e4       	ldi	r26, 0x47	; 71
     d06:	b3 e0       	ldi	r27, 0x03	; 3
     d08:	93 d2       	rcall	.+1318   	; 0x1230 <__umulhisi3>
     d0a:	96 95       	lsr	r25
     d0c:	87 95       	ror	r24
     d0e:	96 95       	lsr	r25
     d10:	87 95       	ror	r24
     d12:	96 95       	lsr	r25
     d14:	87 95       	ror	r24
     d16:	80 5d       	subi	r24, 0xD0	; 208
     d18:	49 d2       	rcall	.+1170   	; 0x11ac <UART_Send_Char>
		UART_Send_Char(tempw%10 + 0x30);
     d1a:	92 01       	movw	r18, r4
     d1c:	36 95       	lsr	r19
     d1e:	27 95       	ror	r18
     d20:	36 95       	lsr	r19
     d22:	27 95       	ror	r18
     d24:	36 95       	lsr	r19
     d26:	27 95       	ror	r18
     d28:	a5 ec       	ldi	r26, 0xC5	; 197
     d2a:	b0 e2       	ldi	r27, 0x20	; 32
     d2c:	81 d2       	rcall	.+1282   	; 0x1230 <__umulhisi3>
     d2e:	92 95       	swap	r25
     d30:	82 95       	swap	r24
     d32:	8f 70       	andi	r24, 0x0F	; 15
     d34:	89 27       	eor	r24, r25
     d36:	9f 70       	andi	r25, 0x0F	; 15
     d38:	89 27       	eor	r24, r25
     d3a:	9c 83       	std	Y+4, r25	; 0x04
     d3c:	8b 83       	std	Y+3, r24	; 0x03
     d3e:	9c 01       	movw	r18, r24
     d40:	ad ec       	ldi	r26, 0xCD	; 205
     d42:	bc ec       	ldi	r27, 0xCC	; 204
     d44:	75 d2       	rcall	.+1258   	; 0x1230 <__umulhisi3>
     d46:	96 95       	lsr	r25
     d48:	87 95       	ror	r24
     d4a:	96 95       	lsr	r25
     d4c:	87 95       	ror	r24
     d4e:	96 95       	lsr	r25
     d50:	87 95       	ror	r24
     d52:	9c 01       	movw	r18, r24
     d54:	22 0f       	add	r18, r18
     d56:	33 1f       	adc	r19, r19
     d58:	88 0f       	add	r24, r24
     d5a:	99 1f       	adc	r25, r25
     d5c:	88 0f       	add	r24, r24
     d5e:	99 1f       	adc	r25, r25
     d60:	88 0f       	add	r24, r24
     d62:	99 1f       	adc	r25, r25
     d64:	82 0f       	add	r24, r18
     d66:	93 1f       	adc	r25, r19
     d68:	2b 81       	ldd	r18, Y+3	; 0x03
     d6a:	3c 81       	ldd	r19, Y+4	; 0x04
     d6c:	28 1b       	sub	r18, r24
     d6e:	39 0b       	sbc	r19, r25
     d70:	c9 01       	movw	r24, r18
     d72:	80 5d       	subi	r24, 0xD0	; 208
     d74:	1b d2       	rcall	.+1078   	; 0x11ac <UART_Send_Char>
		temp1 = temp1 % 1000;
     d76:	eb 81       	ldd	r30, Y+3	; 0x03
     d78:	fc 81       	ldd	r31, Y+4	; 0x04
     d7a:	ee 9d       	mul	r30, r14
     d7c:	c0 01       	movw	r24, r0
     d7e:	ef 9d       	mul	r30, r15
     d80:	90 0d       	add	r25, r0
     d82:	fe 9d       	mul	r31, r14
     d84:	90 0d       	add	r25, r0
     d86:	11 24       	eor	r1, r1
     d88:	92 01       	movw	r18, r4
     d8a:	28 1b       	sub	r18, r24
     d8c:	39 0b       	sbc	r19, r25
     d8e:	3c 83       	std	Y+4, r19	; 0x04
     d90:	2b 83       	std	Y+3, r18	; 0x03
		tempw = temp1/100;
		UART_Send_Char(tempw + 0x30);
     d92:	36 95       	lsr	r19
     d94:	27 95       	ror	r18
     d96:	36 95       	lsr	r19
     d98:	27 95       	ror	r18
     d9a:	ab e7       	ldi	r26, 0x7B	; 123
     d9c:	b4 e1       	ldi	r27, 0x14	; 20
     d9e:	48 d2       	rcall	.+1168   	; 0x1230 <__umulhisi3>
     da0:	6c 01       	movw	r12, r24
     da2:	d6 94       	lsr	r13
     da4:	c7 94       	ror	r12
     da6:	80 e3       	ldi	r24, 0x30	; 48
     da8:	8c 0d       	add	r24, r12
     daa:	00 d2       	rcall	.+1024   	; 0x11ac <UART_Send_Char>
		tempw = temp1 % 100;
     dac:	bc 9c       	mul	r11, r12
     dae:	c0 01       	movw	r24, r0
     db0:	bd 9c       	mul	r11, r13
     db2:	90 0d       	add	r25, r0
     db4:	11 24       	eor	r1, r1
     db6:	eb 81       	ldd	r30, Y+3	; 0x03
     db8:	fc 81       	ldd	r31, Y+4	; 0x04
     dba:	e8 1b       	sub	r30, r24
     dbc:	f9 0b       	sbc	r31, r25
     dbe:	fc 83       	std	Y+4, r31	; 0x04
     dc0:	eb 83       	std	Y+3, r30	; 0x03
		UART_Send_Char(tempw/10 + 0x30);
     dc2:	9f 01       	movw	r18, r30
     dc4:	ad ec       	ldi	r26, 0xCD	; 205
     dc6:	bc ec       	ldi	r27, 0xCC	; 204
     dc8:	33 d2       	rcall	.+1126   	; 0x1230 <__umulhisi3>
     dca:	6c 01       	movw	r12, r24
     dcc:	d6 94       	lsr	r13
     dce:	c7 94       	ror	r12
     dd0:	d6 94       	lsr	r13
     dd2:	c7 94       	ror	r12
     dd4:	d6 94       	lsr	r13
     dd6:	c7 94       	ror	r12
     dd8:	80 e3       	ldi	r24, 0x30	; 48
     dda:	8c 0d       	add	r24, r12
     ddc:	e7 d1       	rcall	.+974    	; 0x11ac <UART_Send_Char>
		UART_Send_Char(tempw%10 + 0x30);
     dde:	c6 01       	movw	r24, r12
     de0:	88 0f       	add	r24, r24
     de2:	99 1f       	adc	r25, r25
     de4:	cc 0c       	add	r12, r12
     de6:	dd 1c       	adc	r13, r13
     de8:	cc 0c       	add	r12, r12
     dea:	dd 1c       	adc	r13, r13
     dec:	cc 0c       	add	r12, r12
     dee:	dd 1c       	adc	r13, r13
     df0:	c8 0e       	add	r12, r24
     df2:	d9 1e       	adc	r13, r25
     df4:	8b 81       	ldd	r24, Y+3	; 0x03
     df6:	9c 81       	ldd	r25, Y+4	; 0x04
     df8:	8c 19       	sub	r24, r12
     dfa:	9d 09       	sbc	r25, r13
     dfc:	80 5d       	subi	r24, 0xD0	; 208
     dfe:	d6 d1       	rcall	.+940    	; 0x11ac <UART_Send_Char>
			
		UART_Send_Str(" MHz ");
     e00:	8e e8       	ldi	r24, 0x8E	; 142
     e02:	90 e0       	ldi	r25, 0x00	; 0
     e04:	d7 d1       	rcall	.+942    	; 0x11b4 <UART_Send_Str>
			
		tempw = FM_getRSSI();
     e06:	1f df       	rcall	.-450    	; 0xc46 <FM_getRSSI>
     e08:	a8 2e       	mov	r10, r24
     e0a:	88 2e       	mov	r8, r24
     e0c:	91 2c       	mov	r9, r1
		temp1 = tempw;
		tempw = temp1/100;
		UART_Send_Char(tempw + 0x30);
     e0e:	94 01       	movw	r18, r8
     e10:	36 95       	lsr	r19
     e12:	27 95       	ror	r18
     e14:	36 95       	lsr	r19
     e16:	27 95       	ror	r18
     e18:	ab e7       	ldi	r26, 0x7B	; 123
     e1a:	b4 e1       	ldi	r27, 0x14	; 20
     e1c:	09 d2       	rcall	.+1042   	; 0x1230 <__umulhisi3>
     e1e:	96 95       	lsr	r25
     e20:	87 95       	ror	r24
     e22:	9c 83       	std	Y+4, r25	; 0x04
     e24:	8b 83       	std	Y+3, r24	; 0x03
     e26:	8b 81       	ldd	r24, Y+3	; 0x03
     e28:	80 5d       	subi	r24, 0xD0	; 208
     e2a:	c0 d1       	rcall	.+896    	; 0x11ac <UART_Send_Char>
		tempw = temp1 % 100;
     e2c:	2b 81       	ldd	r18, Y+3	; 0x03
     e2e:	3c 81       	ldd	r19, Y+4	; 0x04
     e30:	b2 9e       	mul	r11, r18
     e32:	c0 01       	movw	r24, r0
     e34:	b3 9e       	mul	r11, r19
     e36:	90 0d       	add	r25, r0
     e38:	11 24       	eor	r1, r1
     e3a:	64 01       	movw	r12, r8
     e3c:	c8 1a       	sub	r12, r24
     e3e:	d9 0a       	sbc	r13, r25
		UART_Send_Char(tempw/10 + 0x30);
     e40:	96 01       	movw	r18, r12
     e42:	ad ec       	ldi	r26, 0xCD	; 205
     e44:	bc ec       	ldi	r27, 0xCC	; 204
     e46:	f4 d1       	rcall	.+1000   	; 0x1230 <__umulhisi3>
     e48:	96 95       	lsr	r25
     e4a:	87 95       	ror	r24
     e4c:	96 95       	lsr	r25
     e4e:	87 95       	ror	r24
     e50:	96 95       	lsr	r25
     e52:	87 95       	ror	r24
     e54:	9c 83       	std	Y+4, r25	; 0x04
     e56:	8b 83       	std	Y+3, r24	; 0x03
     e58:	8b 81       	ldd	r24, Y+3	; 0x03
     e5a:	80 5d       	subi	r24, 0xD0	; 208
     e5c:	a7 d1       	rcall	.+846    	; 0x11ac <UART_Send_Char>
		UART_Send_Char(tempw%10 + 0x30);
     e5e:	8b 81       	ldd	r24, Y+3	; 0x03
     e60:	9c 81       	ldd	r25, Y+4	; 0x04
     e62:	88 0f       	add	r24, r24
     e64:	99 1f       	adc	r25, r25
     e66:	eb 81       	ldd	r30, Y+3	; 0x03
     e68:	fc 81       	ldd	r31, Y+4	; 0x04
     e6a:	ee 0f       	add	r30, r30
     e6c:	ff 1f       	adc	r31, r31
     e6e:	ee 0f       	add	r30, r30
     e70:	ff 1f       	adc	r31, r31
     e72:	ee 0f       	add	r30, r30
     e74:	ff 1f       	adc	r31, r31
     e76:	e8 0f       	add	r30, r24
     e78:	f9 1f       	adc	r31, r25
     e7a:	c6 01       	movw	r24, r12
     e7c:	8e 1b       	sub	r24, r30
     e7e:	9f 0b       	sbc	r25, r31
     e80:	80 5d       	subi	r24, 0xD0	; 208
     e82:	94 d1       	rcall	.+808    	; 0x11ac <UART_Send_Char>
		UART_Send_Str(" LEVEL \r\n");
     e84:	84 e9       	ldi	r24, 0x94	; 148
     e86:	90 e0       	ldi	r25, 0x00	; 0
     e88:	95 d1       	rcall	.+810    	; 0x11b4 <UART_Send_Str>
		
		tempw = FM_getRegister(0x0A);
     e8a:	8a e0       	ldi	r24, 0x0A	; 10
     e8c:	80 dc       	rcall	.-1792   	; 0x78e <FM_getRegister>
		if((tempw&0x8000)>>15)
     e8e:	99 23       	and	r25, r25
     e90:	0c f0       	brlt	.+2      	; 0xe94 <SEEK_FOR_RDS+0x244>
     e92:	02 cf       	rjmp	.-508    	; 0xc98 <SEEK_FOR_RDS+0x48>
		{
			UART_Send_Str("RDS! \r\n");
     e94:	8e e9       	ldi	r24, 0x9E	; 158
     e96:	90 e0       	ldi	r25, 0x00	; 0
     e98:	8d d1       	rcall	.+794    	; 0x11b4 <UART_Send_Str>
			iter++;
			if(temp1>station.rssi)
     e9a:	80 91 d9 00 	lds	r24, 0x00D9	; 0x8000d9 <station+0x2>
     e9e:	90 e0       	ldi	r25, 0x00	; 0
     ea0:	88 15       	cp	r24, r8
     ea2:	99 05       	cpc	r25, r9
     ea4:	30 f4       	brcc	.+12     	; 0xeb2 <SEEK_FOR_RDS+0x262>
			{
				station.rssi = temp1;
     ea6:	a0 92 d9 00 	sts	0x00D9, r10	; 0x8000d9 <station+0x2>
				station.freq = temp2;
     eaa:	e7 ed       	ldi	r30, 0xD7	; 215
     eac:	f0 e0       	ldi	r31, 0x00	; 0
     eae:	51 82       	std	Z+1, r5	; 0x01
     eb0:	40 82       	st	Z, r4
     eb2:	29 81       	ldd	r18, Y+1	; 0x01
     eb4:	3a 81       	ldd	r19, Y+2	; 0x02
     eb6:	21 50       	subi	r18, 0x01	; 1
     eb8:	31 09       	sbc	r19, r1
     eba:	3a 83       	std	Y+2, r19	; 0x02
     ebc:	29 83       	std	Y+1, r18	; 0x01
			}
				
			if(iter == SEARCH_ITER)
     ebe:	23 2b       	or	r18, r19
     ec0:	09 f0       	breq	.+2      	; 0xec4 <SEEK_FOR_RDS+0x274>
     ec2:	ea ce       	rjmp	.-556    	; 0xc98 <SEEK_FOR_RDS+0x48>
			{
				UART_Send_Str("\nSet: ");
     ec4:	86 ea       	ldi	r24, 0xA6	; 166
     ec6:	90 e0       	ldi	r25, 0x00	; 0
     ec8:	75 d1       	rcall	.+746    	; 0x11b4 <UART_Send_Str>
				UART_Send_Char(station.freq/10000 + 0x30);
     eca:	e7 ed       	ldi	r30, 0xD7	; 215
     ecc:	f0 e0       	ldi	r31, 0x00	; 0
     ece:	20 81       	ld	r18, Z
     ed0:	31 81       	ldd	r19, Z+1	; 0x01
     ed2:	32 95       	swap	r19
     ed4:	22 95       	swap	r18
     ed6:	2f 70       	andi	r18, 0x0F	; 15
     ed8:	23 27       	eor	r18, r19
     eda:	3f 70       	andi	r19, 0x0F	; 15
     edc:	23 27       	eor	r18, r19
     ede:	a7 e4       	ldi	r26, 0x47	; 71
     ee0:	b3 e0       	ldi	r27, 0x03	; 3
     ee2:	a6 d1       	rcall	.+844    	; 0x1230 <__umulhisi3>
     ee4:	96 95       	lsr	r25
     ee6:	87 95       	ror	r24
     ee8:	96 95       	lsr	r25
     eea:	87 95       	ror	r24
     eec:	96 95       	lsr	r25
     eee:	87 95       	ror	r24
     ef0:	80 5d       	subi	r24, 0xD0	; 208
     ef2:	5c d1       	rcall	.+696    	; 0x11ac <UART_Send_Char>
				UART_Send_Char(((station.freq%10000)/1000) + 0x30);
     ef4:	e7 ed       	ldi	r30, 0xD7	; 215
     ef6:	f0 e0       	ldi	r31, 0x00	; 0
     ef8:	40 81       	ld	r20, Z
     efa:	51 81       	ldd	r21, Z+1	; 0x01
     efc:	9a 01       	movw	r18, r20
     efe:	32 95       	swap	r19
     f00:	22 95       	swap	r18
     f02:	2f 70       	andi	r18, 0x0F	; 15
     f04:	23 27       	eor	r18, r19
     f06:	3f 70       	andi	r19, 0x0F	; 15
     f08:	23 27       	eor	r18, r19
     f0a:	a7 e4       	ldi	r26, 0x47	; 71
     f0c:	b3 e0       	ldi	r27, 0x03	; 3
     f0e:	90 d1       	rcall	.+800    	; 0x1230 <__umulhisi3>
     f10:	96 95       	lsr	r25
     f12:	87 95       	ror	r24
     f14:	96 95       	lsr	r25
     f16:	87 95       	ror	r24
     f18:	96 95       	lsr	r25
     f1a:	87 95       	ror	r24
     f1c:	0f 2e       	mov	r0, r31
     f1e:	f0 e1       	ldi	r31, 0x10	; 16
     f20:	ef 2e       	mov	r14, r31
     f22:	f7 e2       	ldi	r31, 0x27	; 39
     f24:	ff 2e       	mov	r15, r31
     f26:	f0 2d       	mov	r31, r0
     f28:	8e 9d       	mul	r24, r14
     f2a:	90 01       	movw	r18, r0
     f2c:	8f 9d       	mul	r24, r15
     f2e:	30 0d       	add	r19, r0
     f30:	9e 9d       	mul	r25, r14
     f32:	30 0d       	add	r19, r0
     f34:	11 24       	eor	r1, r1
     f36:	ca 01       	movw	r24, r20
     f38:	82 1b       	sub	r24, r18
     f3a:	93 0b       	sbc	r25, r19
     f3c:	9c 01       	movw	r18, r24
     f3e:	36 95       	lsr	r19
     f40:	27 95       	ror	r18
     f42:	36 95       	lsr	r19
     f44:	27 95       	ror	r18
     f46:	36 95       	lsr	r19
     f48:	27 95       	ror	r18
     f4a:	a5 ec       	ldi	r26, 0xC5	; 197
     f4c:	b0 e2       	ldi	r27, 0x20	; 32
     f4e:	70 d1       	rcall	.+736    	; 0x1230 <__umulhisi3>
     f50:	92 95       	swap	r25
     f52:	82 95       	swap	r24
     f54:	8f 70       	andi	r24, 0x0F	; 15
     f56:	89 27       	eor	r24, r25
     f58:	9f 70       	andi	r25, 0x0F	; 15
     f5a:	89 27       	eor	r24, r25
     f5c:	80 5d       	subi	r24, 0xD0	; 208
     f5e:	26 d1       	rcall	.+588    	; 0x11ac <UART_Send_Char>
				UART_Send_Char(((station.freq%10000)%1000)/100 + 0x30);
     f60:	e7 ed       	ldi	r30, 0xD7	; 215
     f62:	f0 e0       	ldi	r31, 0x00	; 0
     f64:	40 81       	ld	r20, Z
     f66:	51 81       	ldd	r21, Z+1	; 0x01
     f68:	9a 01       	movw	r18, r20
     f6a:	32 95       	swap	r19
     f6c:	22 95       	swap	r18
     f6e:	2f 70       	andi	r18, 0x0F	; 15
     f70:	23 27       	eor	r18, r19
     f72:	3f 70       	andi	r19, 0x0F	; 15
     f74:	23 27       	eor	r18, r19
     f76:	a7 e4       	ldi	r26, 0x47	; 71
     f78:	b3 e0       	ldi	r27, 0x03	; 3
     f7a:	5a d1       	rcall	.+692    	; 0x1230 <__umulhisi3>
     f7c:	96 95       	lsr	r25
     f7e:	87 95       	ror	r24
     f80:	96 95       	lsr	r25
     f82:	87 95       	ror	r24
     f84:	96 95       	lsr	r25
     f86:	87 95       	ror	r24
     f88:	8e 9d       	mul	r24, r14
     f8a:	90 01       	movw	r18, r0
     f8c:	8f 9d       	mul	r24, r15
     f8e:	30 0d       	add	r19, r0
     f90:	9e 9d       	mul	r25, r14
     f92:	30 0d       	add	r19, r0
     f94:	11 24       	eor	r1, r1
     f96:	42 1b       	sub	r20, r18
     f98:	53 0b       	sbc	r21, r19
     f9a:	9a 01       	movw	r18, r20
     f9c:	36 95       	lsr	r19
     f9e:	27 95       	ror	r18
     fa0:	36 95       	lsr	r19
     fa2:	27 95       	ror	r18
     fa4:	36 95       	lsr	r19
     fa6:	27 95       	ror	r18
     fa8:	a5 ec       	ldi	r26, 0xC5	; 197
     faa:	b0 e2       	ldi	r27, 0x20	; 32
     fac:	41 d1       	rcall	.+642    	; 0x1230 <__umulhisi3>
     fae:	92 95       	swap	r25
     fb0:	82 95       	swap	r24
     fb2:	8f 70       	andi	r24, 0x0F	; 15
     fb4:	89 27       	eor	r24, r25
     fb6:	9f 70       	andi	r25, 0x0F	; 15
     fb8:	89 27       	eor	r24, r25
     fba:	08 ee       	ldi	r16, 0xE8	; 232
     fbc:	13 e0       	ldi	r17, 0x03	; 3
     fbe:	80 9f       	mul	r24, r16
     fc0:	90 01       	movw	r18, r0
     fc2:	81 9f       	mul	r24, r17
     fc4:	30 0d       	add	r19, r0
     fc6:	90 9f       	mul	r25, r16
     fc8:	30 0d       	add	r19, r0
     fca:	11 24       	eor	r1, r1
     fcc:	ca 01       	movw	r24, r20
     fce:	82 1b       	sub	r24, r18
     fd0:	93 0b       	sbc	r25, r19
     fd2:	9c 01       	movw	r18, r24
     fd4:	36 95       	lsr	r19
     fd6:	27 95       	ror	r18
     fd8:	36 95       	lsr	r19
     fda:	27 95       	ror	r18
     fdc:	ab e7       	ldi	r26, 0x7B	; 123
     fde:	b4 e1       	ldi	r27, 0x14	; 20
     fe0:	27 d1       	rcall	.+590    	; 0x1230 <__umulhisi3>
     fe2:	96 95       	lsr	r25
     fe4:	87 95       	ror	r24
     fe6:	80 5d       	subi	r24, 0xD0	; 208
     fe8:	e1 d0       	rcall	.+450    	; 0x11ac <UART_Send_Char>
				UART_Send_Char((((station.freq%10000)%1000)%100)/10 + 0x30);
     fea:	e7 ed       	ldi	r30, 0xD7	; 215
     fec:	f0 e0       	ldi	r31, 0x00	; 0
     fee:	40 81       	ld	r20, Z
     ff0:	51 81       	ldd	r21, Z+1	; 0x01
     ff2:	9a 01       	movw	r18, r20
     ff4:	32 95       	swap	r19
     ff6:	22 95       	swap	r18
     ff8:	2f 70       	andi	r18, 0x0F	; 15
     ffa:	23 27       	eor	r18, r19
     ffc:	3f 70       	andi	r19, 0x0F	; 15
     ffe:	23 27       	eor	r18, r19
    1000:	a7 e4       	ldi	r26, 0x47	; 71
    1002:	b3 e0       	ldi	r27, 0x03	; 3
    1004:	15 d1       	rcall	.+554    	; 0x1230 <__umulhisi3>
    1006:	96 95       	lsr	r25
    1008:	87 95       	ror	r24
    100a:	96 95       	lsr	r25
    100c:	87 95       	ror	r24
    100e:	96 95       	lsr	r25
    1010:	87 95       	ror	r24
    1012:	8e 9d       	mul	r24, r14
    1014:	90 01       	movw	r18, r0
    1016:	8f 9d       	mul	r24, r15
    1018:	30 0d       	add	r19, r0
    101a:	9e 9d       	mul	r25, r14
    101c:	30 0d       	add	r19, r0
    101e:	11 24       	eor	r1, r1
    1020:	42 1b       	sub	r20, r18
    1022:	53 0b       	sbc	r21, r19
    1024:	9a 01       	movw	r18, r20
    1026:	36 95       	lsr	r19
    1028:	27 95       	ror	r18
    102a:	36 95       	lsr	r19
    102c:	27 95       	ror	r18
    102e:	36 95       	lsr	r19
    1030:	27 95       	ror	r18
    1032:	a5 ec       	ldi	r26, 0xC5	; 197
    1034:	b0 e2       	ldi	r27, 0x20	; 32
    1036:	fc d0       	rcall	.+504    	; 0x1230 <__umulhisi3>
    1038:	92 95       	swap	r25
    103a:	82 95       	swap	r24
    103c:	8f 70       	andi	r24, 0x0F	; 15
    103e:	89 27       	eor	r24, r25
    1040:	9f 70       	andi	r25, 0x0F	; 15
    1042:	89 27       	eor	r24, r25
    1044:	80 9f       	mul	r24, r16
    1046:	90 01       	movw	r18, r0
    1048:	81 9f       	mul	r24, r17
    104a:	30 0d       	add	r19, r0
    104c:	90 9f       	mul	r25, r16
    104e:	30 0d       	add	r19, r0
    1050:	11 24       	eor	r1, r1
    1052:	42 1b       	sub	r20, r18
    1054:	53 0b       	sbc	r21, r19
    1056:	9a 01       	movw	r18, r20
    1058:	36 95       	lsr	r19
    105a:	27 95       	ror	r18
    105c:	36 95       	lsr	r19
    105e:	27 95       	ror	r18
    1060:	ab e7       	ldi	r26, 0x7B	; 123
    1062:	b4 e1       	ldi	r27, 0x14	; 20
    1064:	e5 d0       	rcall	.+458    	; 0x1230 <__umulhisi3>
    1066:	96 95       	lsr	r25
    1068:	87 95       	ror	r24
    106a:	0f 2e       	mov	r0, r31
    106c:	f4 e6       	ldi	r31, 0x64	; 100
    106e:	df 2e       	mov	r13, r31
    1070:	f0 2d       	mov	r31, r0
    1072:	d8 9e       	mul	r13, r24
    1074:	90 01       	movw	r18, r0
    1076:	d9 9e       	mul	r13, r25
    1078:	30 0d       	add	r19, r0
    107a:	11 24       	eor	r1, r1
    107c:	ca 01       	movw	r24, r20
    107e:	82 1b       	sub	r24, r18
    1080:	93 0b       	sbc	r25, r19
    1082:	9c 01       	movw	r18, r24
    1084:	ad ec       	ldi	r26, 0xCD	; 205
    1086:	bc ec       	ldi	r27, 0xCC	; 204
    1088:	d3 d0       	rcall	.+422    	; 0x1230 <__umulhisi3>
    108a:	96 95       	lsr	r25
    108c:	87 95       	ror	r24
    108e:	96 95       	lsr	r25
    1090:	87 95       	ror	r24
    1092:	96 95       	lsr	r25
    1094:	87 95       	ror	r24
    1096:	80 5d       	subi	r24, 0xD0	; 208
    1098:	89 d0       	rcall	.+274    	; 0x11ac <UART_Send_Char>
				UART_Send_Char((((station.freq%10000)%1000)%100)%10 + 0x30);
    109a:	e7 ed       	ldi	r30, 0xD7	; 215
    109c:	f0 e0       	ldi	r31, 0x00	; 0
    109e:	40 81       	ld	r20, Z
    10a0:	51 81       	ldd	r21, Z+1	; 0x01
    10a2:	9a 01       	movw	r18, r20
    10a4:	32 95       	swap	r19
    10a6:	22 95       	swap	r18
    10a8:	2f 70       	andi	r18, 0x0F	; 15
    10aa:	23 27       	eor	r18, r19
    10ac:	3f 70       	andi	r19, 0x0F	; 15
    10ae:	23 27       	eor	r18, r19
    10b0:	a7 e4       	ldi	r26, 0x47	; 71
    10b2:	b3 e0       	ldi	r27, 0x03	; 3
    10b4:	bd d0       	rcall	.+378    	; 0x1230 <__umulhisi3>
    10b6:	96 95       	lsr	r25
    10b8:	87 95       	ror	r24
    10ba:	96 95       	lsr	r25
    10bc:	87 95       	ror	r24
    10be:	96 95       	lsr	r25
    10c0:	87 95       	ror	r24
    10c2:	8e 9d       	mul	r24, r14
    10c4:	90 01       	movw	r18, r0
    10c6:	8f 9d       	mul	r24, r15
    10c8:	30 0d       	add	r19, r0
    10ca:	9e 9d       	mul	r25, r14
    10cc:	30 0d       	add	r19, r0
    10ce:	11 24       	eor	r1, r1
    10d0:	42 1b       	sub	r20, r18
    10d2:	53 0b       	sbc	r21, r19
    10d4:	9a 01       	movw	r18, r20
    10d6:	36 95       	lsr	r19
    10d8:	27 95       	ror	r18
    10da:	36 95       	lsr	r19
    10dc:	27 95       	ror	r18
    10de:	36 95       	lsr	r19
    10e0:	27 95       	ror	r18
    10e2:	a5 ec       	ldi	r26, 0xC5	; 197
    10e4:	b0 e2       	ldi	r27, 0x20	; 32
    10e6:	a4 d0       	rcall	.+328    	; 0x1230 <__umulhisi3>
    10e8:	92 95       	swap	r25
    10ea:	82 95       	swap	r24
    10ec:	8f 70       	andi	r24, 0x0F	; 15
    10ee:	89 27       	eor	r24, r25
    10f0:	9f 70       	andi	r25, 0x0F	; 15
    10f2:	89 27       	eor	r24, r25
    10f4:	80 9f       	mul	r24, r16
    10f6:	90 01       	movw	r18, r0
    10f8:	81 9f       	mul	r24, r17
    10fa:	30 0d       	add	r19, r0
    10fc:	90 9f       	mul	r25, r16
    10fe:	30 0d       	add	r19, r0
    1100:	11 24       	eor	r1, r1
    1102:	42 1b       	sub	r20, r18
    1104:	53 0b       	sbc	r21, r19
    1106:	9a 01       	movw	r18, r20
    1108:	36 95       	lsr	r19
    110a:	27 95       	ror	r18
    110c:	36 95       	lsr	r19
    110e:	27 95       	ror	r18
    1110:	ab e7       	ldi	r26, 0x7B	; 123
    1112:	b4 e1       	ldi	r27, 0x14	; 20
    1114:	8d d0       	rcall	.+282    	; 0x1230 <__umulhisi3>
    1116:	96 95       	lsr	r25
    1118:	87 95       	ror	r24
    111a:	d8 9e       	mul	r13, r24
    111c:	90 01       	movw	r18, r0
    111e:	d9 9e       	mul	r13, r25
    1120:	30 0d       	add	r19, r0
    1122:	11 24       	eor	r1, r1
    1124:	42 1b       	sub	r20, r18
    1126:	53 0b       	sbc	r21, r19
    1128:	9a 01       	movw	r18, r20
    112a:	ad ec       	ldi	r26, 0xCD	; 205
    112c:	bc ec       	ldi	r27, 0xCC	; 204
    112e:	80 d0       	rcall	.+256    	; 0x1230 <__umulhisi3>
    1130:	96 95       	lsr	r25
    1132:	87 95       	ror	r24
    1134:	96 95       	lsr	r25
    1136:	87 95       	ror	r24
    1138:	96 95       	lsr	r25
    113a:	87 95       	ror	r24
    113c:	9c 01       	movw	r18, r24
    113e:	22 0f       	add	r18, r18
    1140:	33 1f       	adc	r19, r19
    1142:	88 0f       	add	r24, r24
    1144:	99 1f       	adc	r25, r25
    1146:	88 0f       	add	r24, r24
    1148:	99 1f       	adc	r25, r25
    114a:	88 0f       	add	r24, r24
    114c:	99 1f       	adc	r25, r25
    114e:	82 0f       	add	r24, r18
    1150:	93 1f       	adc	r25, r19
    1152:	9a 01       	movw	r18, r20
    1154:	28 1b       	sub	r18, r24
    1156:	39 0b       	sbc	r19, r25
    1158:	c9 01       	movw	r24, r18
    115a:	80 5d       	subi	r24, 0xD0	; 208
    115c:	27 d0       	rcall	.+78     	; 0x11ac <UART_Send_Char>
				UART_Send_Str(" MHz\n");
    115e:	8d ea       	ldi	r24, 0xAD	; 173
    1160:	90 e0       	ldi	r25, 0x00	; 0
    1162:	28 d0       	rcall	.+80     	; 0x11b4 <UART_Send_Str>
			}
			
		}
	}
	return station.freq;
    1164:	e7 ed       	ldi	r30, 0xD7	; 215
    1166:	f0 e0       	ldi	r31, 0x00	; 0
    1168:	80 81       	ld	r24, Z
    116a:	91 81       	ldd	r25, Z+1	; 0x01
    116c:	0f 90       	pop	r0
    116e:	0f 90       	pop	r0
    1170:	0f 90       	pop	r0
    1172:	0f 90       	pop	r0
    1174:	df 91       	pop	r29
    1176:	cf 91       	pop	r28
    1178:	1f 91       	pop	r17
    117a:	0f 91       	pop	r16
    117c:	ff 90       	pop	r15
    117e:	ef 90       	pop	r14
    1180:	df 90       	pop	r13
    1182:	cf 90       	pop	r12
    1184:	bf 90       	pop	r11
    1186:	af 90       	pop	r10
    1188:	9f 90       	pop	r9
    118a:	8f 90       	pop	r8
    118c:	7f 90       	pop	r7
    118e:	6f 90       	pop	r6
    1190:	5f 90       	pop	r5
    1192:	4f 90       	pop	r4
    1194:	3f 90       	pop	r3
    1196:	2f 90       	pop	r2
    1198:	08 95       	ret

0000119a <UART_Init>:
п»ї#include <avr/io.h>
#include "uart.h"

void UART_Init(void)
{
	UBRRL = MYUBRR;
    119a:	83 e3       	ldi	r24, 0x33	; 51
    119c:	89 b9       	out	0x09, r24	; 9
	UBRRH = MYUBRR>>8;
    119e:	10 bc       	out	0x20, r1	; 32
	UCSRB = (1<<RXEN)|(1<<TXEN);
    11a0:	88 e1       	ldi	r24, 0x18	; 24
    11a2:	8a b9       	out	0x0a, r24	; 10
	UCSRC |=(1<< URSEL)|(1<< UCSZ0)|(1<< UCSZ1);
    11a4:	80 b5       	in	r24, 0x20	; 32
    11a6:	86 68       	ori	r24, 0x86	; 134
    11a8:	80 bd       	out	0x20, r24	; 32
    11aa:	08 95       	ret

000011ac <UART_Send_Char>:
}

void UART_Send_Char(unsigned char c)
{
	while (!(UCSRA&(1<<UDRE)));
    11ac:	5d 9b       	sbis	0x0b, 5	; 11
    11ae:	fe cf       	rjmp	.-4      	; 0x11ac <UART_Send_Char>
	UDR = c;
    11b0:	8c b9       	out	0x0c, r24	; 12
    11b2:	08 95       	ret

000011b4 <UART_Send_Str>:
}

void UART_Send_Str(unsigned char* str)
{
    11b4:	cf 93       	push	r28
    11b6:	df 93       	push	r29
    11b8:	ec 01       	movw	r28, r24
	while (*str != 0) UART_Send_Char(*str++);
    11ba:	88 81       	ld	r24, Y
    11bc:	88 23       	and	r24, r24
    11be:	29 f0       	breq	.+10     	; 0x11ca <UART_Send_Str+0x16>
    11c0:	21 96       	adiw	r28, 0x01	; 1
    11c2:	f4 df       	rcall	.-24     	; 0x11ac <UART_Send_Char>
    11c4:	89 91       	ld	r24, Y+
    11c6:	81 11       	cpse	r24, r1
    11c8:	fc cf       	rjmp	.-8      	; 0x11c2 <UART_Send_Str+0xe>
    11ca:	df 91       	pop	r29
    11cc:	cf 91       	pop	r28
    11ce:	08 95       	ret

000011d0 <__udivmodhi4>:
    11d0:	aa 1b       	sub	r26, r26
    11d2:	bb 1b       	sub	r27, r27
    11d4:	51 e1       	ldi	r21, 0x11	; 17
    11d6:	07 c0       	rjmp	.+14     	; 0x11e6 <__udivmodhi4_ep>

000011d8 <__udivmodhi4_loop>:
    11d8:	aa 1f       	adc	r26, r26
    11da:	bb 1f       	adc	r27, r27
    11dc:	a6 17       	cp	r26, r22
    11de:	b7 07       	cpc	r27, r23
    11e0:	10 f0       	brcs	.+4      	; 0x11e6 <__udivmodhi4_ep>
    11e2:	a6 1b       	sub	r26, r22
    11e4:	b7 0b       	sbc	r27, r23

000011e6 <__udivmodhi4_ep>:
    11e6:	88 1f       	adc	r24, r24
    11e8:	99 1f       	adc	r25, r25
    11ea:	5a 95       	dec	r21
    11ec:	a9 f7       	brne	.-22     	; 0x11d8 <__udivmodhi4_loop>
    11ee:	80 95       	com	r24
    11f0:	90 95       	com	r25
    11f2:	bc 01       	movw	r22, r24
    11f4:	cd 01       	movw	r24, r26
    11f6:	08 95       	ret

000011f8 <__divmodsi4>:
    11f8:	05 2e       	mov	r0, r21
    11fa:	97 fb       	bst	r25, 7
    11fc:	16 f4       	brtc	.+4      	; 0x1202 <__divmodsi4+0xa>
    11fe:	00 94       	com	r0
    1200:	0f d0       	rcall	.+30     	; 0x1220 <__negsi2>
    1202:	57 fd       	sbrc	r21, 7
    1204:	05 d0       	rcall	.+10     	; 0x1210 <__divmodsi4_neg2>
    1206:	20 d0       	rcall	.+64     	; 0x1248 <__udivmodsi4>
    1208:	07 fc       	sbrc	r0, 7
    120a:	02 d0       	rcall	.+4      	; 0x1210 <__divmodsi4_neg2>
    120c:	46 f4       	brtc	.+16     	; 0x121e <__divmodsi4_exit>
    120e:	08 c0       	rjmp	.+16     	; 0x1220 <__negsi2>

00001210 <__divmodsi4_neg2>:
    1210:	50 95       	com	r21
    1212:	40 95       	com	r20
    1214:	30 95       	com	r19
    1216:	21 95       	neg	r18
    1218:	3f 4f       	sbci	r19, 0xFF	; 255
    121a:	4f 4f       	sbci	r20, 0xFF	; 255
    121c:	5f 4f       	sbci	r21, 0xFF	; 255

0000121e <__divmodsi4_exit>:
    121e:	08 95       	ret

00001220 <__negsi2>:
    1220:	90 95       	com	r25
    1222:	80 95       	com	r24
    1224:	70 95       	com	r23
    1226:	61 95       	neg	r22
    1228:	7f 4f       	sbci	r23, 0xFF	; 255
    122a:	8f 4f       	sbci	r24, 0xFF	; 255
    122c:	9f 4f       	sbci	r25, 0xFF	; 255
    122e:	08 95       	ret

00001230 <__umulhisi3>:
    1230:	a2 9f       	mul	r26, r18
    1232:	b0 01       	movw	r22, r0
    1234:	b3 9f       	mul	r27, r19
    1236:	c0 01       	movw	r24, r0
    1238:	a3 9f       	mul	r26, r19
    123a:	01 d0       	rcall	.+2      	; 0x123e <__umulhisi3+0xe>
    123c:	b2 9f       	mul	r27, r18
    123e:	70 0d       	add	r23, r0
    1240:	81 1d       	adc	r24, r1
    1242:	11 24       	eor	r1, r1
    1244:	91 1d       	adc	r25, r1
    1246:	08 95       	ret

00001248 <__udivmodsi4>:
    1248:	a1 e2       	ldi	r26, 0x21	; 33
    124a:	1a 2e       	mov	r1, r26
    124c:	aa 1b       	sub	r26, r26
    124e:	bb 1b       	sub	r27, r27
    1250:	fd 01       	movw	r30, r26
    1252:	0d c0       	rjmp	.+26     	; 0x126e <__udivmodsi4_ep>

00001254 <__udivmodsi4_loop>:
    1254:	aa 1f       	adc	r26, r26
    1256:	bb 1f       	adc	r27, r27
    1258:	ee 1f       	adc	r30, r30
    125a:	ff 1f       	adc	r31, r31
    125c:	a2 17       	cp	r26, r18
    125e:	b3 07       	cpc	r27, r19
    1260:	e4 07       	cpc	r30, r20
    1262:	f5 07       	cpc	r31, r21
    1264:	20 f0       	brcs	.+8      	; 0x126e <__udivmodsi4_ep>
    1266:	a2 1b       	sub	r26, r18
    1268:	b3 0b       	sbc	r27, r19
    126a:	e4 0b       	sbc	r30, r20
    126c:	f5 0b       	sbc	r31, r21

0000126e <__udivmodsi4_ep>:
    126e:	66 1f       	adc	r22, r22
    1270:	77 1f       	adc	r23, r23
    1272:	88 1f       	adc	r24, r24
    1274:	99 1f       	adc	r25, r25
    1276:	1a 94       	dec	r1
    1278:	69 f7       	brne	.-38     	; 0x1254 <__udivmodsi4_loop>
    127a:	60 95       	com	r22
    127c:	70 95       	com	r23
    127e:	80 95       	com	r24
    1280:	90 95       	com	r25
    1282:	9b 01       	movw	r18, r22
    1284:	ac 01       	movw	r20, r24
    1286:	bd 01       	movw	r22, r26
    1288:	cf 01       	movw	r24, r30
    128a:	08 95       	ret

0000128c <_exit>:
    128c:	f8 94       	cli

0000128e <__stop_program>:
    128e:	ff cf       	rjmp	.-2      	; 0x128e <__stop_program>
